ARM GAS  /tmp/ccZsNbSx.s 			page 1


   1              		.syntax unified
   2              		.cpu cortex-m4
   3              		.fpu softvfp
   4              		.eabi_attribute 20, 1
   5              		.eabi_attribute 21, 1
   6              		.eabi_attribute 23, 3
   7              		.eabi_attribute 24, 1
   8              		.eabi_attribute 25, 1
   9              		.eabi_attribute 26, 1
  10              		.eabi_attribute 30, 2
  11              		.eabi_attribute 34, 1
  12              		.eabi_attribute 18, 4
  13              		.thumb
  14              		.file	"chdynamic.c"
  15              		.text
  16              	.Ltext0:
  17              		.cfi_sections	.debug_frame
  18              		.section	.text.chThdAddRef,"ax",%progbits
  19              		.align	2
  20              		.p2align 4,,15
  21              		.global	chThdAddRef
  22              		.thumb
  23              		.thumb_func
  24              		.type	chThdAddRef, %function
  25              	chThdAddRef:
  26              	.LFB7:
  27              		.file 1 "../../../os/kernel/src/chdynamic.c"
  28              		.loc 1 45 0
  29              		.cfi_startproc
  30              		@ args = 0, pretend = 0, frame = 0
  31              		@ frame_needed = 0, uses_anonymous_args = 0
  32              	.LVL0:
  33 0000 10B5     		push	{r4, lr}
  34              		.cfi_def_cfa_offset 8
  35              		.cfi_offset 4, -8
  36              		.cfi_offset 14, -4
  37              	.LBB2:
  38              		.loc 1 47 0
  39 0002 2023     		movs	r3, #32
  40              	.LBE2:
  41              		.loc 1 45 0
  42 0004 0446     		mov	r4, r0
  43              	.LBB3:
  44              		.loc 1 47 0
  45              	@ 47 "../../../os/kernel/src/chdynamic.c" 1
  46 0006 83F31188 		msr     BASEPRI, r3
  47              	@ 0 "" 2
  48              		.thumb
  49              	.LBE3:
  50 000a FFF7FEFF 		bl	dbg_check_lock
  51              	.LVL1:
  52              		.loc 1 48 0
  53 000e 94F82230 		ldrb	r3, [r4, #34]	@ zero_extendqisi2
  54 0012 FF2B     		cmp	r3, #255
  55 0014 09D0     		beq	.L4
  56              	.L2:
  57              		.loc 1 49 0
ARM GAS  /tmp/ccZsNbSx.s 			page 2


  58 0016 0133     		adds	r3, r3, #1
  59 0018 84F82230 		strb	r3, [r4, #34]
  60              		.loc 1 50 0
  61 001c FFF7FEFF 		bl	dbg_check_unlock
  62              	.LVL2:
  63              	.LBB4:
  64 0020 0023     		movs	r3, #0
  65              	@ 50 "../../../os/kernel/src/chdynamic.c" 1
  66 0022 83F31188 		msr     BASEPRI, r3
  67              	@ 0 "" 2
  68              		.thumb
  69              	.LBE4:
  70              		.loc 1 52 0
  71 0026 2046     		mov	r0, r4
  72 0028 10BD     		pop	{r4, pc}
  73              	.LVL3:
  74              	.L4:
  75              		.loc 1 48 0 discriminator 1
  76 002a 0348     		ldr	r0, .L5
  77 002c FFF7FEFF 		bl	chDbgPanic
  78              	.LVL4:
  79 0030 94F82230 		ldrb	r3, [r4, #34]	@ zero_extendqisi2
  80 0034 EFE7     		b	.L2
  81              	.L6:
  82 0036 00BF     		.align	2
  83              	.L5:
  84 0038 00000000 		.word	.LC0
  85              		.cfi_endproc
  86              	.LFE7:
  87              		.size	chThdAddRef, .-chThdAddRef
  88 003c AFF30080 		.section	.text.chThdRelease,"ax",%progbits
  89              		.align	2
  90              		.p2align 4,,15
  91              		.global	chThdRelease
  92              		.thumb
  93              		.thumb_func
  94              		.type	chThdRelease, %function
  95              	chThdRelease:
  96              	.LFB8:
  97              		.loc 1 67 0
  98              		.cfi_startproc
  99              		@ args = 0, pretend = 0, frame = 0
 100              		@ frame_needed = 0, uses_anonymous_args = 0
 101              	.LVL5:
 102 0000 38B5     		push	{r3, r4, r5, lr}
 103              		.cfi_def_cfa_offset 16
 104              		.cfi_offset 3, -16
 105              		.cfi_offset 4, -12
 106              		.cfi_offset 5, -8
 107              		.cfi_offset 14, -4
 108              		.loc 1 67 0
 109 0002 0446     		mov	r4, r0
 110              	.LBB5:
 111              		.loc 1 70 0
 112 0004 2023     		movs	r3, #32
 113              	@ 70 "../../../os/kernel/src/chdynamic.c" 1
 114 0006 83F31188 		msr     BASEPRI, r3
ARM GAS  /tmp/ccZsNbSx.s 			page 3


 115              	@ 0 "" 2
 116              		.thumb
 117              	.LBE5:
 118 000a FFF7FEFF 		bl	dbg_check_lock
 119              	.LVL6:
 120              		.loc 1 71 0
 121 000e 94F82230 		ldrb	r3, [r4, #34]	@ zero_extendqisi2
 122 0012 BBB1     		cbz	r3, .L12
 123              	.L8:
 124              		.loc 1 72 0
 125 0014 013B     		subs	r3, r3, #1
 126 0016 DDB2     		uxtb	r5, r3
 127 0018 84F82250 		strb	r5, [r4, #34]
 128              	.LVL7:
 129              		.loc 1 73 0
 130 001c FFF7FEFF 		bl	dbg_check_unlock
 131              	.LVL8:
 132              	.LBB6:
 133 0020 0023     		movs	r3, #0
 134              	@ 73 "../../../os/kernel/src/chdynamic.c" 1
 135 0022 83F31188 		msr     BASEPRI, r3
 136              	@ 0 "" 2
 137              		.thumb
 138              	.LBE6:
 139              		.loc 1 78 0
 140 0026 1DB9     		cbnz	r5, .L7
 141              		.loc 1 78 0 is_stmt 0 discriminator 1
 142 0028 94F82030 		ldrb	r3, [r4, #32]	@ zero_extendqisi2
 143 002c 0E2B     		cmp	r3, #14
 144 002e 00D0     		beq	.L13
 145              	.L7:
 146 0030 38BD     		pop	{r3, r4, r5, pc}
 147              	.LVL9:
 148              	.L13:
 149              		.loc 1 79 0 is_stmt 1
 150 0032 94F82130 		ldrb	r3, [r4, #33]	@ zero_extendqisi2
 151 0036 03F00303 		and	r3, r3, #3
 152 003a 012B     		cmp	r3, #1
 153 003c 08D0     		beq	.L10
 154 003e 022B     		cmp	r3, #2
 155 0040 10D0     		beq	.L11
 156 0042 38BD     		pop	{r3, r4, r5, pc}
 157              	.LVL10:
 158              	.L12:
 159              		.loc 1 71 0 discriminator 1
 160 0044 0D48     		ldr	r0, .L14
 161 0046 FFF7FEFF 		bl	chDbgPanic
 162              	.LVL11:
 163 004a 94F82230 		ldrb	r3, [r4, #34]	@ zero_extendqisi2
 164 004e E1E7     		b	.L8
 165              	.LVL12:
 166              	.L10:
 167              		.loc 1 83 0
 168 0050 6369     		ldr	r3, [r4, #20]
 169 0052 2269     		ldr	r2, [r4, #16]
 170 0054 1A61     		str	r2, [r3, #16]
 171 0056 2269     		ldr	r2, [r4, #16]
ARM GAS  /tmp/ccZsNbSx.s 			page 4


 172              		.loc 1 85 0
 173 0058 2046     		mov	r0, r4
 174              		.loc 1 83 0
 175 005a 5361     		str	r3, [r2, #20]
 176              		.loc 1 98 0
 177 005c BDE83840 		pop	{r3, r4, r5, lr}
 178              	.LVL13:
 179              		.loc 1 85 0
 180 0060 FFF7FEBF 		b	chHeapFree
 181              	.LVL14:
 182              	.L11:
 183              		.loc 1 91 0
 184 0064 6369     		ldr	r3, [r4, #20]
 185 0066 2269     		ldr	r2, [r4, #16]
 186 0068 1A61     		str	r2, [r3, #16]
 187 006a 2269     		ldr	r2, [r4, #16]
 188              		.loc 1 93 0
 189 006c A06C     		ldr	r0, [r4, #72]
 190              		.loc 1 91 0
 191 006e 5361     		str	r3, [r2, #20]
 192              		.loc 1 93 0
 193 0070 2146     		mov	r1, r4
 194              		.loc 1 98 0
 195 0072 BDE83840 		pop	{r3, r4, r5, lr}
 196              	.LVL15:
 197              		.loc 1 93 0
 198 0076 FFF7FEBF 		b	chPoolFree
 199              	.LVL16:
 200              	.L15:
 201 007a 00BF     		.align	2
 202              	.L14:
 203 007c 14000000 		.word	.LC1
 204              		.cfi_endproc
 205              	.LFE8:
 206              		.size	chThdRelease, .-chThdRelease
 207              		.section	.text.chThdCreateFromHeap,"ax",%progbits
 208              		.align	2
 209              		.p2align 4,,15
 210              		.global	chThdCreateFromHeap
 211              		.thumb
 212              		.thumb_func
 213              		.type	chThdCreateFromHeap, %function
 214              	chThdCreateFromHeap:
 215              	.LFB9:
 216              		.loc 1 124 0
 217              		.cfi_startproc
 218              		@ args = 4, pretend = 0, frame = 0
 219              		@ frame_needed = 0, uses_anonymous_args = 0
 220              	.LVL17:
 221 0000 2DE9F041 		push	{r4, r5, r6, r7, r8, lr}
 222              		.cfi_def_cfa_offset 24
 223              		.cfi_offset 4, -24
 224              		.cfi_offset 5, -20
 225              		.cfi_offset 6, -16
 226              		.cfi_offset 7, -12
 227              		.cfi_offset 8, -8
 228              		.cfi_offset 14, -4
ARM GAS  /tmp/ccZsNbSx.s 			page 5


 229 0004 82B0     		sub	sp, sp, #8
 230              		.cfi_def_cfa_offset 32
 231              		.loc 1 124 0
 232 0006 9046     		mov	r8, r2
 233 0008 1F46     		mov	r7, r3
 234 000a 0D46     		mov	r5, r1
 235              		.loc 1 128 0
 236 000c FFF7FEFF 		bl	chHeapAlloc
 237              	.LVL18:
 238              		.loc 1 129 0
 239 0010 0446     		mov	r4, r0
 240 0012 20B3     		cbz	r0, .L17
 241              		.loc 1 133 0
 242 0014 00F14C06 		add	r6, r0, #76
 243 0018 3146     		mov	r1, r6
 244 001a FF22     		movs	r2, #255
 245 001c FFF7FEFF 		bl	_thread_memfill
 246              	.LVL19:
 247              		.loc 1 136 0
 248 0020 3046     		mov	r0, r6
 249 0022 6119     		adds	r1, r4, r5
 250 0024 5522     		movs	r2, #85
 251 0026 FFF7FEFF 		bl	_thread_memfill
 252              	.LVL20:
 253              	.LBB7:
 254              		.loc 1 141 0
 255 002a 2023     		movs	r3, #32
 256              	@ 141 "../../../os/kernel/src/chdynamic.c" 1
 257 002c 83F31188 		msr     BASEPRI, r3
 258              	@ 0 "" 2
 259              		.thumb
 260              	.LBE7:
 261 0030 FFF7FEFF 		bl	dbg_check_lock
 262              	.LVL21:
 263              		.loc 1 142 0
 264 0034 089B     		ldr	r3, [sp, #32]
 265 0036 0093     		str	r3, [sp]
 266 0038 4246     		mov	r2, r8
 267 003a 2946     		mov	r1, r5
 268 003c 3B46     		mov	r3, r7
 269 003e 2046     		mov	r0, r4
 270 0040 FFF7FEFF 		bl	chThdCreateI
 271              	.LVL22:
 272              		.loc 1 143 0
 273 0044 0123     		movs	r3, #1
 274 0046 80F82130 		strb	r3, [r0, #33]
 275              		.loc 1 144 0
 276 004a 0021     		movs	r1, #0
 277              		.loc 1 142 0
 278 004c 0446     		mov	r4, r0
 279              	.LVL23:
 280              		.loc 1 144 0
 281 004e FFF7FEFF 		bl	chSchWakeupS
 282              	.LVL24:
 283              		.loc 1 145 0
 284 0052 FFF7FEFF 		bl	dbg_check_unlock
 285              	.LVL25:
ARM GAS  /tmp/ccZsNbSx.s 			page 6


 286              	.LBB8:
 287 0056 0023     		movs	r3, #0
 288              	@ 145 "../../../os/kernel/src/chdynamic.c" 1
 289 0058 83F31188 		msr     BASEPRI, r3
 290              	@ 0 "" 2
 291              		.thumb
 292              	.LBE8:
 293              		.loc 1 146 0
 294 005c 2046     		mov	r0, r4
 295              	.LVL26:
 296              	.L17:
 297              		.loc 1 147 0
 298 005e 02B0     		add	sp, sp, #8
 299              		@ sp needed
 300 0060 BDE8F081 		pop	{r4, r5, r6, r7, r8, pc}
 301              		.cfi_endproc
 302              	.LFE9:
 303              		.size	chThdCreateFromHeap, .-chThdCreateFromHeap
 304 0064 AFF30080 		.section	.text.chThdCreateFromMemoryPool,"ax",%progbits
 304      AFF30080 
 304      AFF30080 
 305              		.align	2
 306              		.p2align 4,,15
 307              		.global	chThdCreateFromMemoryPool
 308              		.thumb
 309              		.thumb_func
 310              		.type	chThdCreateFromMemoryPool, %function
 311              	chThdCreateFromMemoryPool:
 312              	.LFB10:
 313              		.loc 1 173 0
 314              		.cfi_startproc
 315              		@ args = 0, pretend = 0, frame = 0
 316              		@ frame_needed = 0, uses_anonymous_args = 0
 317              	.LVL27:
 318 0000 2DE9F043 		push	{r4, r5, r6, r7, r8, r9, lr}
 319              		.cfi_def_cfa_offset 28
 320              		.cfi_offset 4, -28
 321              		.cfi_offset 5, -24
 322              		.cfi_offset 6, -20
 323              		.cfi_offset 7, -16
 324              		.cfi_offset 8, -12
 325              		.cfi_offset 9, -8
 326              		.cfi_offset 14, -4
 327              		.loc 1 177 0
 328 0004 0446     		mov	r4, r0
 329              		.loc 1 173 0
 330 0006 83B0     		sub	sp, sp, #12
 331              		.cfi_def_cfa_offset 40
 332              		.loc 1 173 0
 333 0008 8846     		mov	r8, r1
 334 000a 1746     		mov	r7, r2
 335 000c 9946     		mov	r9, r3
 336              		.loc 1 177 0
 337 000e 70B3     		cbz	r0, .L23
 338              	.LVL28:
 339              	.L20:
 340              		.loc 1 179 0
ARM GAS  /tmp/ccZsNbSx.s 			page 7


 341 0010 2046     		mov	r0, r4
 342 0012 FFF7FEFF 		bl	chPoolAlloc
 343              	.LVL29:
 344              		.loc 1 180 0
 345 0016 0546     		mov	r5, r0
 346 0018 30B3     		cbz	r0, .L21
 347              		.loc 1 184 0
 348 001a 00F14C06 		add	r6, r0, #76
 349 001e 3146     		mov	r1, r6
 350 0020 FF22     		movs	r2, #255
 351 0022 FFF7FEFF 		bl	_thread_memfill
 352              	.LVL30:
 353              		.loc 1 187 0
 354 0026 6168     		ldr	r1, [r4, #4]
 355 0028 3046     		mov	r0, r6
 356 002a 2944     		add	r1, r1, r5
 357 002c 5522     		movs	r2, #85
 358 002e FFF7FEFF 		bl	_thread_memfill
 359              	.LVL31:
 360              	.LBB9:
 361              		.loc 1 192 0
 362 0032 2023     		movs	r3, #32
 363              	@ 192 "../../../os/kernel/src/chdynamic.c" 1
 364 0034 83F31188 		msr     BASEPRI, r3
 365              	@ 0 "" 2
 366              		.thumb
 367              	.LBE9:
 368 0038 FFF7FEFF 		bl	dbg_check_lock
 369              	.LVL32:
 370              		.loc 1 193 0
 371 003c 6168     		ldr	r1, [r4, #4]
 372 003e CDF80090 		str	r9, [sp]
 373 0042 4246     		mov	r2, r8
 374 0044 3B46     		mov	r3, r7
 375 0046 2846     		mov	r0, r5
 376 0048 FFF7FEFF 		bl	chThdCreateI
 377              	.LVL33:
 378              		.loc 1 194 0
 379 004c 0223     		movs	r3, #2
 380 004e 80F82130 		strb	r3, [r0, #33]
 381              		.loc 1 195 0
 382 0052 8464     		str	r4, [r0, #72]
 383              		.loc 1 196 0
 384 0054 0021     		movs	r1, #0
 385              		.loc 1 193 0
 386 0056 0546     		mov	r5, r0
 387              	.LVL34:
 388              		.loc 1 196 0
 389 0058 FFF7FEFF 		bl	chSchWakeupS
 390              	.LVL35:
 391              		.loc 1 197 0
 392 005c FFF7FEFF 		bl	dbg_check_unlock
 393              	.LVL36:
 394              	.LBB10:
 395 0060 0023     		movs	r3, #0
 396              	@ 197 "../../../os/kernel/src/chdynamic.c" 1
 397 0062 83F31188 		msr     BASEPRI, r3
ARM GAS  /tmp/ccZsNbSx.s 			page 8


 398              	@ 0 "" 2
 399              		.thumb
 400              	.LBE10:
 401              		.loc 1 198 0
 402 0066 2846     		mov	r0, r5
 403              	.LVL37:
 404              	.L21:
 405              		.loc 1 199 0
 406 0068 03B0     		add	sp, sp, #12
 407              		@ sp needed
 408 006a BDE8F083 		pop	{r4, r5, r6, r7, r8, r9, pc}
 409              	.LVL38:
 410              	.L23:
 411              		.loc 1 177 0 discriminator 1
 412 006e 0248     		ldr	r0, .L24
 413              	.LVL39:
 414 0070 FFF7FEFF 		bl	chDbgPanic
 415              	.LVL40:
 416 0074 CCE7     		b	.L20
 417              	.L25:
 418 0076 00BF     		.align	2
 419              	.L24:
 420 0078 28000000 		.word	.LC2
 421              		.cfi_endproc
 422              	.LFE10:
 423              		.size	chThdCreateFromMemoryPool, .-chThdCreateFromMemoryPool
 424 007c AFF30080 		.section	.rodata.str1.4,"aMS",%progbits,1
 425              		.align	2
 426              	.LC0:
 427 0000 63685468 		.ascii	"chThdAddRef(), #1\000"
 427      64416464 
 427      52656628 
 427      292C2023 
 427      3100
 428 0012 0000     		.space	2
 429              	.LC1:
 430 0014 63685468 		.ascii	"chThdRelease(), #1\000"
 430      6452656C 
 430      65617365 
 430      28292C20 
 430      233100
 431 0027 00       		.space	1
 432              	.LC2:
 433 0028 22636854 		.ascii	"\"chThdCreateFromMemoryPool\"()\000"
 433      68644372 
 433      65617465 
 433      46726F6D 
 433      4D656D6F 
 434 0046 0000     		.text
 435              	.Letext0:
 436              		.file 2 "/usr/local/csl/gcc-arm-none-eabi-4_8-2013q4/lib/gcc/arm-none-eabi/4.8.3/include/stddef.h"
 437              		.file 3 "/usr/local/csl/gcc-arm-none-eabi-4_8-2013q4/arm-none-eabi/include/stdint.h"
 438              		.file 4 "../../../os/ports/GCC/ARMCMx/chtypes.h"
 439              		.file 5 "../../../os/kernel/include/chlists.h"
 440              		.file 6 "../../../os/kernel/include/chthreads.h"
 441              		.file 7 "../../../os/ports/GCC/ARMCMx/chcore_v7m.h"
 442              		.file 8 "../../../os/kernel/include/chmtx.h"
ARM GAS  /tmp/ccZsNbSx.s 			page 9


 443              		.file 9 "../../../os/kernel/include/chmemcore.h"
 444              		.file 10 "../../../os/kernel/include/chheap.h"
 445              		.file 11 "../../../os/kernel/include/chmempools.h"
 446              		.file 12 "../../../os/kernel/include/chdebug.h"
 447              		.file 13 "../../../os/kernel/include/chschd.h"