ARM GAS  /tmp/ccYAuvIl.s 			page 1


   1              		.syntax unified
   2              		.cpu cortex-m4
   3              		.fpu softvfp
   4              		.eabi_attribute 20, 1
   5              		.eabi_attribute 21, 1
   6              		.eabi_attribute 23, 3
   7              		.eabi_attribute 24, 1
   8              		.eabi_attribute 25, 1
   9              		.eabi_attribute 26, 1
  10              		.eabi_attribute 30, 2
  11              		.eabi_attribute 34, 1
  12              		.eabi_attribute 18, 4
  13              		.thumb
  14              		.file	"chmemcore.c"
  15              		.text
  16              	.Ltext0:
  17              		.cfi_sections	.debug_frame
  18              		.section	.text._core_init,"ax",%progbits
  19              		.align	2
  20              		.p2align 4,,15
  21              		.global	_core_init
  22              		.thumb
  23              		.thumb_func
  24              		.type	_core_init, %function
  25              	_core_init:
  26              	.LFB7:
  27              		.file 1 "../../../os/kernel/src/chmemcore.c"
  28              		.loc 1 59 0
  29              		.cfi_startproc
  30              		@ args = 0, pretend = 0, frame = 0
  31              		@ frame_needed = 0, uses_anonymous_args = 0
  32              		@ link register save eliminated.
  33              		.loc 1 63 0
  34 0000 0548     		ldr	r0, .L2
  35              		.loc 1 64 0
  36 0002 064A     		ldr	r2, .L2+4
  37              		.loc 1 63 0
  38 0004 0649     		ldr	r1, .L2+8
  39              		.loc 1 64 0
  40 0006 074B     		ldr	r3, .L2+12
  41              		.loc 1 63 0
  42 0008 20F00700 		bic	r0, r0, #7
  43              		.loc 1 64 0
  44 000c 22F00702 		bic	r2, r2, #7
  45              		.loc 1 63 0
  46 0010 0860     		str	r0, [r1]
  47              		.loc 1 64 0
  48 0012 1A60     		str	r2, [r3]
  49 0014 7047     		bx	lr
  50              	.L3:
  51 0016 00BF     		.align	2
  52              	.L2:
  53 0018 07000000 		.word	__heap_base__+7
  54 001c 00000000 		.word	__heap_end__
  55 0020 00000000 		.word	.LANCHOR0
  56 0024 00000000 		.word	.LANCHOR1
  57              		.cfi_endproc
ARM GAS  /tmp/ccYAuvIl.s 			page 2


  58              	.LFE7:
  59              		.size	_core_init, .-_core_init
  60 0028 AFF30080 		.section	.text.chCoreAllocI,"ax",%progbits
  60      AFF30080 
  61              		.align	2
  62              		.p2align 4,,15
  63              		.global	chCoreAllocI
  64              		.thumb
  65              		.thumb_func
  66              		.type	chCoreAllocI, %function
  67              	chCoreAllocI:
  68              	.LFB9:
  69              		.loc 1 105 0
  70              		.cfi_startproc
  71              		@ args = 0, pretend = 0, frame = 0
  72              		@ frame_needed = 0, uses_anonymous_args = 0
  73              	.LVL0:
  74 0000 10B5     		push	{r4, lr}
  75              		.cfi_def_cfa_offset 8
  76              		.cfi_offset 4, -8
  77              		.cfi_offset 14, -4
  78              		.loc 1 105 0
  79 0002 0446     		mov	r4, r0
  80              		.loc 1 108 0
  81 0004 FFF7FEFF 		bl	chDbgCheckClassI
  82              	.LVL1:
  83              		.loc 1 111 0
  84 0008 074A     		ldr	r2, .L8
  85 000a 0849     		ldr	r1, .L8+4
  86 000c 1368     		ldr	r3, [r2]
  87 000e 0968     		ldr	r1, [r1]
  88              		.loc 1 110 0
  89 0010 E01D     		adds	r0, r4, #7
  90 0012 20F00700 		bic	r0, r0, #7
  91              	.LVL2:
  92              		.loc 1 111 0
  93 0016 C91A     		subs	r1, r1, r3
  94 0018 8842     		cmp	r0, r1
  95 001a 03D8     		bhi	.L6
  96              	.LVL3:
  97              		.loc 1 114 0
  98 001c 1844     		add	r0, r0, r3
  99              	.LVL4:
 100 001e 1060     		str	r0, [r2]
 101              		.loc 1 115 0
 102 0020 1846     		mov	r0, r3
 103 0022 10BD     		pop	{r4, pc}
 104              	.LVL5:
 105              	.L6:
 106              		.loc 1 112 0
 107 0024 0020     		movs	r0, #0
 108              	.LVL6:
 109              		.loc 1 116 0
 110 0026 10BD     		pop	{r4, pc}
 111              	.LVL7:
 112              	.L9:
 113              		.align	2
ARM GAS  /tmp/ccYAuvIl.s 			page 3


 114              	.L8:
 115 0028 00000000 		.word	.LANCHOR0
 116 002c 00000000 		.word	.LANCHOR1
 117              		.cfi_endproc
 118              	.LFE9:
 119              		.size	chCoreAllocI, .-chCoreAllocI
 120              		.section	.text.chCoreAlloc,"ax",%progbits
 121              		.align	2
 122              		.p2align 4,,15
 123              		.global	chCoreAlloc
 124              		.thumb
 125              		.thumb_func
 126              		.type	chCoreAlloc, %function
 127              	chCoreAlloc:
 128              	.LFB8:
 129              		.loc 1 84 0
 130              		.cfi_startproc
 131              		@ args = 0, pretend = 0, frame = 0
 132              		@ frame_needed = 0, uses_anonymous_args = 0
 133              	.LVL8:
 134 0000 10B5     		push	{r4, lr}
 135              		.cfi_def_cfa_offset 8
 136              		.cfi_offset 4, -8
 137              		.cfi_offset 14, -4
 138              	.LBB2:
 139              		.loc 1 87 0
 140 0002 2023     		movs	r3, #32
 141              	.LBE2:
 142              		.loc 1 84 0
 143 0004 0446     		mov	r4, r0
 144              	.LBB3:
 145              		.loc 1 87 0
 146              	@ 87 "../../../os/kernel/src/chmemcore.c" 1
 147 0006 83F31188 		msr     BASEPRI, r3
 148              	@ 0 "" 2
 149              		.thumb
 150              	.LBE3:
 151 000a FFF7FEFF 		bl	dbg_check_lock
 152              	.LVL9:
 153              		.loc 1 88 0
 154 000e 2046     		mov	r0, r4
 155 0010 FFF7FEFF 		bl	chCoreAllocI
 156              	.LVL10:
 157 0014 0446     		mov	r4, r0
 158              	.LVL11:
 159              		.loc 1 89 0
 160 0016 FFF7FEFF 		bl	dbg_check_unlock
 161              	.LVL12:
 162              	.LBB4:
 163 001a 0023     		movs	r3, #0
 164              	@ 89 "../../../os/kernel/src/chmemcore.c" 1
 165 001c 83F31188 		msr     BASEPRI, r3
 166              	@ 0 "" 2
 167              		.thumb
 168              	.LBE4:
 169              		.loc 1 91 0
 170 0020 2046     		mov	r0, r4
ARM GAS  /tmp/ccYAuvIl.s 			page 4


 171 0022 10BD     		pop	{r4, pc}
 172              		.cfi_endproc
 173              	.LFE8:
 174              		.size	chCoreAlloc, .-chCoreAlloc
 175 0024 AFF30080 		.section	.text.chCoreStatus,"ax",%progbits
 175      AFF30080 
 175      AFF30080 
 176              		.align	2
 177              		.p2align 4,,15
 178              		.global	chCoreStatus
 179              		.thumb
 180              		.thumb_func
 181              		.type	chCoreStatus, %function
 182              	chCoreStatus:
 183              	.LFB10:
 184              		.loc 1 125 0
 185              		.cfi_startproc
 186              		@ args = 0, pretend = 0, frame = 0
 187              		@ frame_needed = 0, uses_anonymous_args = 0
 188              		@ link register save eliminated.
 189              		.loc 1 127 0
 190 0000 024A     		ldr	r2, .L12
 191 0002 034B     		ldr	r3, .L12+4
 192 0004 1068     		ldr	r0, [r2]
 193 0006 1B68     		ldr	r3, [r3]
 194              		.loc 1 128 0
 195 0008 C01A     		subs	r0, r0, r3
 196 000a 7047     		bx	lr
 197              	.L13:
 198              		.align	2
 199              	.L12:
 200 000c 00000000 		.word	.LANCHOR1
 201 0010 00000000 		.word	.LANCHOR0
 202              		.cfi_endproc
 203              	.LFE10:
 204              		.size	chCoreStatus, .-chCoreStatus
 205 0014 AFF30080 		.section	.bss.endmem,"aw",%nobits
 205      AFF30080 
 205      AFF30080 
 206              		.align	2
 207              		.set	.LANCHOR1,. + 0
 208              		.type	endmem, %object
 209              		.size	endmem, 4
 210              	endmem:
 211 0000 00000000 		.space	4
 212              		.section	.bss.nextmem,"aw",%nobits
 213              		.align	2
 214              		.set	.LANCHOR0,. + 0
 215              		.type	nextmem, %object
 216              		.size	nextmem, 4
 217              	nextmem:
 218 0000 00000000 		.space	4
 219              		.text
 220              	.Letext0:
 221              		.file 2 "/usr/local/csl/gcc-arm-none-eabi-4_8-2013q4/lib/gcc/arm-none-eabi/4.8.3/include/stddef.h"
 222              		.file 3 "/usr/local/csl/gcc-arm-none-eabi-4_8-2013q4/arm-none-eabi/include/stdint.h"
 223              		.file 4 "../../../os/kernel/include/chdebug.h"
ARM GAS  /tmp/ccYAuvIl.s 			page 5

