ARM GAS  /tmp/ccKPfjiu.s 			page 1


   1              		.syntax unified
   2              		.cpu cortex-m4
   3              		.fpu softvfp
   4              		.eabi_attribute 20, 1
   5              		.eabi_attribute 21, 1
   6              		.eabi_attribute 23, 3
   7              		.eabi_attribute 24, 1
   8              		.eabi_attribute 25, 1
   9              		.eabi_attribute 26, 1
  10              		.eabi_attribute 30, 2
  11              		.eabi_attribute 34, 1
  12              		.eabi_attribute 18, 4
  13              		.thumb
  14              		.file	"chmempools.c"
  15              		.text
  16              	.Ltext0:
  17              		.cfi_sections	.debug_frame
  18              		.section	.text.chPoolInit,"ax",%progbits
  19              		.align	2
  20              		.p2align 4,,15
  21              		.global	chPoolInit
  22              		.thumb
  23              		.thumb_func
  24              		.type	chPoolInit, %function
  25              	chPoolInit:
  26              	.LFB7:
  27              		.file 1 "../../../os/kernel/src/chmempools.c"
  28              		.loc 1 55 0
  29              		.cfi_startproc
  30              		@ args = 0, pretend = 0, frame = 0
  31              		@ frame_needed = 0, uses_anonymous_args = 0
  32              	.LVL0:
  33 0000 70B5     		push	{r4, r5, r6, lr}
  34              		.cfi_def_cfa_offset 16
  35              		.cfi_offset 4, -16
  36              		.cfi_offset 5, -12
  37              		.cfi_offset 6, -8
  38              		.cfi_offset 14, -4
  39              		.loc 1 57 0
  40 0002 0446     		mov	r4, r0
  41              		.loc 1 55 0
  42 0004 0D46     		mov	r5, r1
  43 0006 1646     		mov	r6, r2
  44              		.loc 1 57 0
  45 0008 08B1     		cbz	r0, .L2
  46              		.loc 1 57 0 is_stmt 0 discriminator 2
  47 000a 0329     		cmp	r1, #3
  48 000c 02D8     		bhi	.L3
  49              	.L2:
  50              		.loc 1 57 0 discriminator 1
  51 000e 0348     		ldr	r0, .L8
  52              	.LVL1:
  53 0010 FFF7FEFF 		bl	chDbgPanic
  54              	.LVL2:
  55              	.L3:
  56              		.loc 1 59 0 is_stmt 1
  57 0014 0023     		movs	r3, #0
ARM GAS  /tmp/ccKPfjiu.s 			page 2


  58 0016 84E86800 		stmia	r4, {r3, r5, r6}
  59 001a 70BD     		pop	{r4, r5, r6, pc}
  60              	.LVL3:
  61              	.L9:
  62              		.align	2
  63              	.L8:
  64 001c 00000000 		.word	.LC0
  65              		.cfi_endproc
  66              	.LFE7:
  67              		.size	chPoolInit, .-chPoolInit
  68              		.section	.text.chPoolAllocI,"ax",%progbits
  69              		.align	2
  70              		.p2align 4,,15
  71              		.global	chPoolAllocI
  72              		.thumb
  73              		.thumb_func
  74              		.type	chPoolAllocI, %function
  75              	chPoolAllocI:
  76              	.LFB9:
  77              		.loc 1 98 0
  78              		.cfi_startproc
  79              		@ args = 0, pretend = 0, frame = 0
  80              		@ frame_needed = 0, uses_anonymous_args = 0
  81              	.LVL4:
  82 0000 10B5     		push	{r4, lr}
  83              		.cfi_def_cfa_offset 8
  84              		.cfi_offset 4, -8
  85              		.cfi_offset 14, -4
  86              		.loc 1 98 0
  87 0002 0446     		mov	r4, r0
  88              		.loc 1 101 0
  89 0004 FFF7FEFF 		bl	chDbgCheckClassI
  90              	.LVL5:
  91              		.loc 1 102 0
  92 0008 4CB1     		cbz	r4, .L17
  93              	.L11:
  94              		.loc 1 104 0
  95 000a 2068     		ldr	r0, [r4]
  96              	.LVL6:
  97 000c 10B1     		cbz	r0, .L12
  98              		.loc 1 105 0
  99 000e 0368     		ldr	r3, [r0]
 100 0010 2360     		str	r3, [r4]
 101 0012 10BD     		pop	{r4, pc}
 102              	.LVL7:
 103              	.L12:
 104              		.loc 1 106 0
 105 0014 A368     		ldr	r3, [r4, #8]
 106 0016 0BB1     		cbz	r3, .L13
 107              		.loc 1 107 0
 108 0018 6068     		ldr	r0, [r4, #4]
 109              	.LVL8:
 110 001a 9847     		blx	r3
 111              	.LVL9:
 112              	.L13:
 113              		.loc 1 109 0
 114 001c 10BD     		pop	{r4, pc}
ARM GAS  /tmp/ccKPfjiu.s 			page 3


 115              	.LVL10:
 116              	.L17:
 117              		.loc 1 102 0 discriminator 1
 118 001e 0248     		ldr	r0, .L18
 119 0020 FFF7FEFF 		bl	chDbgPanic
 120              	.LVL11:
 121 0024 F1E7     		b	.L11
 122              	.L19:
 123 0026 00BF     		.align	2
 124              	.L18:
 125 0028 10000000 		.word	.LC1
 126              		.cfi_endproc
 127              	.LFE9:
 128              		.size	chPoolAllocI, .-chPoolAllocI
 129 002c AFF30080 		.section	.text.chPoolAlloc,"ax",%progbits
 130              		.align	2
 131              		.p2align 4,,15
 132              		.global	chPoolAlloc
 133              		.thumb
 134              		.thumb_func
 135              		.type	chPoolAlloc, %function
 136              	chPoolAlloc:
 137              	.LFB10:
 138              		.loc 1 121 0
 139              		.cfi_startproc
 140              		@ args = 0, pretend = 0, frame = 0
 141              		@ frame_needed = 0, uses_anonymous_args = 0
 142              	.LVL12:
 143 0000 10B5     		push	{r4, lr}
 144              		.cfi_def_cfa_offset 8
 145              		.cfi_offset 4, -8
 146              		.cfi_offset 14, -4
 147              	.LBB2:
 148              		.loc 1 124 0
 149 0002 2023     		movs	r3, #32
 150              	.LBE2:
 151              		.loc 1 121 0
 152 0004 0446     		mov	r4, r0
 153              	.LBB3:
 154              		.loc 1 124 0
 155              	@ 124 "../../../os/kernel/src/chmempools.c" 1
 156 0006 83F31188 		msr     BASEPRI, r3
 157              	@ 0 "" 2
 158              		.thumb
 159              	.LBE3:
 160 000a FFF7FEFF 		bl	dbg_check_lock
 161              	.LVL13:
 162              		.loc 1 125 0
 163 000e 2046     		mov	r0, r4
 164 0010 FFF7FEFF 		bl	chPoolAllocI
 165              	.LVL14:
 166 0014 0446     		mov	r4, r0
 167              	.LVL15:
 168              		.loc 1 126 0
 169 0016 FFF7FEFF 		bl	dbg_check_unlock
 170              	.LVL16:
 171              	.LBB4:
ARM GAS  /tmp/ccKPfjiu.s 			page 4


 172 001a 0023     		movs	r3, #0
 173              	@ 126 "../../../os/kernel/src/chmempools.c" 1
 174 001c 83F31188 		msr     BASEPRI, r3
 175              	@ 0 "" 2
 176              		.thumb
 177              	.LBE4:
 178              		.loc 1 128 0
 179 0020 2046     		mov	r0, r4
 180 0022 10BD     		pop	{r4, pc}
 181              		.cfi_endproc
 182              	.LFE10:
 183              		.size	chPoolAlloc, .-chPoolAlloc
 184 0024 AFF30080 		.section	.text.chPoolFreeI,"ax",%progbits
 184      AFF30080 
 184      AFF30080 
 185              		.align	2
 186              		.p2align 4,,15
 187              		.global	chPoolFreeI
 188              		.thumb
 189              		.thumb_func
 190              		.type	chPoolFreeI, %function
 191              	chPoolFreeI:
 192              	.LFB11:
 193              		.loc 1 142 0
 194              		.cfi_startproc
 195              		@ args = 0, pretend = 0, frame = 0
 196              		@ frame_needed = 0, uses_anonymous_args = 0
 197              	.LVL17:
 198 0000 38B5     		push	{r3, r4, r5, lr}
 199              		.cfi_def_cfa_offset 16
 200              		.cfi_offset 3, -16
 201              		.cfi_offset 4, -12
 202              		.cfi_offset 5, -8
 203              		.cfi_offset 14, -4
 204              		.loc 1 142 0
 205 0002 0446     		mov	r4, r0
 206 0004 0D46     		mov	r5, r1
 207              	.LVL18:
 208              		.loc 1 145 0
 209 0006 FFF7FEFF 		bl	chDbgCheckClassI
 210              	.LVL19:
 211              		.loc 1 146 0
 212 000a 24B1     		cbz	r4, .L22
 213              		.loc 1 146 0 is_stmt 0 discriminator 2
 214 000c 1DB1     		cbz	r5, .L22
 215              		.loc 1 148 0 is_stmt 1
 216 000e 2368     		ldr	r3, [r4]
 217 0010 2B60     		str	r3, [r5]
 218              		.loc 1 149 0
 219 0012 2560     		str	r5, [r4]
 220 0014 38BD     		pop	{r3, r4, r5, pc}
 221              	.LVL20:
 222              	.L22:
 223              		.loc 1 146 0 discriminator 1
 224 0016 0348     		ldr	r0, .L27
 225 0018 FFF7FEFF 		bl	chDbgPanic
 226              	.LVL21:
ARM GAS  /tmp/ccKPfjiu.s 			page 5


 227              		.loc 1 148 0 discriminator 1
 228 001c 2368     		ldr	r3, [r4]
 229 001e 2B60     		str	r3, [r5]
 230              		.loc 1 149 0 discriminator 1
 231 0020 2560     		str	r5, [r4]
 232 0022 38BD     		pop	{r3, r4, r5, pc}
 233              	.LVL22:
 234              	.L28:
 235              		.align	2
 236              	.L27:
 237 0024 24000000 		.word	.LC2
 238              		.cfi_endproc
 239              	.LFE11:
 240              		.size	chPoolFreeI, .-chPoolFreeI
 241 0028 AFF30080 		.section	.text.chPoolFree,"ax",%progbits
 241      AFF30080 
 242              		.align	2
 243              		.p2align 4,,15
 244              		.global	chPoolFree
 245              		.thumb
 246              		.thumb_func
 247              		.type	chPoolFree, %function
 248              	chPoolFree:
 249              	.LFB12:
 250              		.loc 1 164 0
 251              		.cfi_startproc
 252              		@ args = 0, pretend = 0, frame = 0
 253              		@ frame_needed = 0, uses_anonymous_args = 0
 254              	.LVL23:
 255 0000 38B5     		push	{r3, r4, r5, lr}
 256              		.cfi_def_cfa_offset 16
 257              		.cfi_offset 3, -16
 258              		.cfi_offset 4, -12
 259              		.cfi_offset 5, -8
 260              		.cfi_offset 14, -4
 261              		.loc 1 164 0
 262 0002 0546     		mov	r5, r0
 263 0004 0C46     		mov	r4, r1
 264              	.LBB5:
 265              		.loc 1 166 0
 266 0006 2023     		movs	r3, #32
 267              	@ 166 "../../../os/kernel/src/chmempools.c" 1
 268 0008 83F31188 		msr     BASEPRI, r3
 269              	@ 0 "" 2
 270              		.thumb
 271              	.LBE5:
 272 000c FFF7FEFF 		bl	dbg_check_lock
 273              	.LVL24:
 274              		.loc 1 167 0
 275 0010 2846     		mov	r0, r5
 276 0012 2146     		mov	r1, r4
 277 0014 FFF7FEFF 		bl	chPoolFreeI
 278              	.LVL25:
 279              		.loc 1 168 0
 280 0018 FFF7FEFF 		bl	dbg_check_unlock
 281              	.LVL26:
 282              	.LBB6:
ARM GAS  /tmp/ccKPfjiu.s 			page 6


 283 001c 0023     		movs	r3, #0
 284              	@ 168 "../../../os/kernel/src/chmempools.c" 1
 285 001e 83F31188 		msr     BASEPRI, r3
 286              	@ 0 "" 2
 287              		.thumb
 288 0022 38BD     		pop	{r3, r4, r5, pc}
 289              	.LBE6:
 290              		.cfi_endproc
 291              	.LFE12:
 292              		.size	chPoolFree, .-chPoolFree
 293 0024 AFF30080 		.section	.text.chPoolLoadArray,"ax",%progbits
 293      AFF30080 
 293      AFF30080 
 294              		.align	2
 295              		.p2align 4,,15
 296              		.global	chPoolLoadArray
 297              		.thumb
 298              		.thumb_func
 299              		.type	chPoolLoadArray, %function
 300              	chPoolLoadArray:
 301              	.LFB8:
 302              		.loc 1 77 0
 303              		.cfi_startproc
 304              		@ args = 0, pretend = 0, frame = 0
 305              		@ frame_needed = 0, uses_anonymous_args = 0
 306              	.LVL27:
 307 0000 70B5     		push	{r4, r5, r6, lr}
 308              		.cfi_def_cfa_offset 16
 309              		.cfi_offset 4, -16
 310              		.cfi_offset 5, -12
 311              		.cfi_offset 6, -8
 312              		.cfi_offset 14, -4
 313              		.loc 1 79 0
 314 0002 0646     		mov	r6, r0
 315              		.loc 1 77 0
 316 0004 0D46     		mov	r5, r1
 317 0006 1446     		mov	r4, r2
 318              		.loc 1 79 0
 319 0008 28B1     		cbz	r0, .L31
 320              		.loc 1 79 0 is_stmt 0 discriminator 2
 321 000a 42B9     		cbnz	r2, .L33
 322              		.loc 1 79 0
 323 000c 0948     		ldr	r0, .L39
 324              	.LVL28:
 325              		.loc 1 86 0 is_stmt 1
 326 000e BDE87040 		pop	{r4, r5, r6, lr}
 327              	.LVL29:
 328              		.loc 1 79 0
 329 0012 FFF7FEBF 		b	chDbgPanic
 330              	.LVL30:
 331              	.L31:
 332              		.loc 1 79 0 is_stmt 0 discriminator 1
 333 0016 0748     		ldr	r0, .L39
 334              	.LVL31:
 335 0018 FFF7FEFF 		bl	chDbgPanic
 336              	.LVL32:
 337              		.loc 1 81 0 is_stmt 1 discriminator 1
ARM GAS  /tmp/ccKPfjiu.s 			page 7


 338 001c 44B1     		cbz	r4, .L30
 339              	.LVL33:
 340              	.L33:
 341              		.loc 1 82 0
 342 001e 2946     		mov	r1, r5
 343 0020 3046     		mov	r0, r6
 344 0022 FFF7FEFF 		bl	chPoolFree
 345              	.LVL34:
 346              		.loc 1 83 0
 347 0026 7368     		ldr	r3, [r6, #4]
 348              		.loc 1 81 0
 349 0028 013C     		subs	r4, r4, #1
 350              	.LVL35:
 351              		.loc 1 83 0
 352 002a 1D44     		add	r5, r5, r3
 353              	.LVL36:
 354              		.loc 1 81 0
 355 002c F7D1     		bne	.L33
 356 002e 70BD     		pop	{r4, r5, r6, pc}
 357              	.LVL37:
 358              	.L30:
 359 0030 70BD     		pop	{r4, r5, r6, pc}
 360              	.LVL38:
 361              	.L40:
 362 0032 00BF     		.align	2
 363              	.L39:
 364 0034 34000000 		.word	.LC3
 365              		.cfi_endproc
 366              	.LFE8:
 367              		.size	chPoolLoadArray, .-chPoolLoadArray
 368 0038 AFF30080 		.section	.rodata.str1.4,"aMS",%progbits,1
 368      AFF30080 
 369              		.align	2
 370              	.LC0:
 371 0000 22636850 		.ascii	"\"chPoolInit\"()\000"
 371      6F6F6C49 
 371      6E697422 
 371      282900
 372 000f 00       		.space	1
 373              	.LC1:
 374 0010 22636850 		.ascii	"\"chPoolAllocI\"()\000"
 374      6F6F6C41 
 374      6C6C6F63 
 374      49222829 
 374      00
 375 0021 000000   		.space	3
 376              	.LC2:
 377 0024 22636850 		.ascii	"\"chPoolFreeI\"()\000"
 377      6F6F6C46 
 377      72656549 
 377      22282900 
 378              	.LC3:
 379 0034 22636850 		.ascii	"\"chPoolLoadArray\"()\000"
 379      6F6F6C4C 
 379      6F616441 
 379      72726179 
 379      22282900 
ARM GAS  /tmp/ccKPfjiu.s 			page 8


 380              		.text
 381              	.Letext0:
 382              		.file 2 "/usr/local/csl/gcc-arm-none-eabi-4_8-2013q4/lib/gcc/arm-none-eabi/4.8.3/include/stddef.h"
 383              		.file 3 "/usr/local/csl/gcc-arm-none-eabi-4_8-2013q4/arm-none-eabi/include/stdint.h"
 384              		.file 4 "../../../os/kernel/include/chmemcore.h"
 385              		.file 5 "../../../os/kernel/include/chmempools.h"
 386              		.file 6 "../../../os/kernel/include/chdebug.h"