ARM GAS  /tmp/ccx8r5N9.s 			page 1


   1              		.syntax unified
   2              		.cpu cortex-m4
   3              		.fpu softvfp
   4              		.eabi_attribute 20, 1
   5              		.eabi_attribute 21, 1
   6              		.eabi_attribute 23, 3
   7              		.eabi_attribute 24, 1
   8              		.eabi_attribute 25, 1
   9              		.eabi_attribute 26, 1
  10              		.eabi_attribute 30, 2
  11              		.eabi_attribute 34, 1
  12              		.eabi_attribute 18, 4
  13              		.thumb
  14              		.file	"chmsg.c"
  15              		.text
  16              	.Ltext0:
  17              		.cfi_sections	.debug_frame
  18              		.section	.text.chMsgSend,"ax",%progbits
  19              		.align	2
  20              		.p2align 4,,15
  21              		.global	chMsgSend
  22              		.thumb
  23              		.thumb_func
  24              		.type	chMsgSend, %function
  25              	chMsgSend:
  26              	.LFB7:
  27              		.file 1 "../../../os/kernel/src/chmsg.c"
  28              		.loc 1 68 0
  29              		.cfi_startproc
  30              		@ args = 0, pretend = 0, frame = 0
  31              		@ frame_needed = 0, uses_anonymous_args = 0
  32              	.LVL0:
  33              		.loc 1 69 0
  34 0000 154B     		ldr	r3, .L7
  35              		.loc 1 68 0
  36 0002 70B5     		push	{r4, r5, r6, lr}
  37              		.cfi_def_cfa_offset 16
  38              		.cfi_offset 4, -16
  39              		.cfi_offset 5, -12
  40              		.cfi_offset 6, -8
  41              		.cfi_offset 14, -4
  42              		.loc 1 71 0
  43 0004 0546     		mov	r5, r0
  44              		.loc 1 68 0
  45 0006 0E46     		mov	r6, r1
  46              		.loc 1 69 0
  47 0008 9C69     		ldr	r4, [r3, #24]
  48              	.LVL1:
  49              		.loc 1 71 0
  50 000a 00B3     		cbz	r0, .L5
  51              	.LVL2:
  52              	.L2:
  53              	.LBB10:
  54              		.loc 1 73 0
  55 000c 2023     		movs	r3, #32
  56              	@ 73 "../../../os/kernel/src/chmsg.c" 1
  57 000e 83F31188 		msr     BASEPRI, r3
ARM GAS  /tmp/ccx8r5N9.s 			page 2


  58              	@ 0 "" 2
  59              		.thumb
  60              	.LBE10:
  61 0012 FFF7FEFF 		bl	dbg_check_lock
  62              	.LVL3:
  63              		.loc 1 75 0
  64 0016 05F13002 		add	r2, r5, #48
  65              		.loc 1 77 0
  66 001a 95F82010 		ldrb	r1, [r5, #32]	@ zero_extendqisi2
  67              		.loc 1 75 0
  68 001e A262     		str	r2, [r4, #40]
  69              	.LVL4:
  70              	.LBB11:
  71              	.LBB12:
  72              		.file 2 "../../../os/kernel/include/chinline.h"
  73              		.loc 2 48 0
  74 0020 6B6B     		ldr	r3, [r5, #52]
  75              	.LBE12:
  76              	.LBE11:
  77              		.loc 1 74 0
  78 0022 A663     		str	r6, [r4, #56]
  79              		.loc 1 77 0
  80 0024 0C29     		cmp	r1, #12
  81              	.LBB14:
  82              	.LBB13:
  83              		.loc 2 48 0
  84 0026 84E80C00 		stmia	r4, {r2, r3}
  85              		.loc 2 49 0
  86 002a 6C63     		str	r4, [r5, #52]
  87 002c 1C60     		str	r4, [r3]
  88              	.LBE13:
  89              	.LBE14:
  90              		.loc 1 77 0
  91 002e 0AD0     		beq	.L6
  92              	.LVL5:
  93              	.L3:
  94              		.loc 1 79 0
  95 0030 0A20     		movs	r0, #10
  96 0032 FFF7FEFF 		bl	chSchGoSleepS
  97              	.LVL6:
  98              		.loc 1 80 0
  99 0036 A46A     		ldr	r4, [r4, #40]
 100              	.LVL7:
 101              		.loc 1 81 0
 102 0038 FFF7FEFF 		bl	dbg_check_unlock
 103              	.LVL8:
 104              	.LBB15:
 105 003c 0023     		movs	r3, #0
 106              	@ 81 "../../../os/kernel/src/chmsg.c" 1
 107 003e 83F31188 		msr     BASEPRI, r3
 108              	@ 0 "" 2
 109              		.thumb
 110              	.LBE15:
 111              		.loc 1 83 0
 112 0042 2046     		mov	r0, r4
 113 0044 70BD     		pop	{r4, r5, r6, pc}
 114              	.LVL9:
ARM GAS  /tmp/ccx8r5N9.s 			page 3


 115              	.L6:
 116              		.loc 1 78 0
 117 0046 2846     		mov	r0, r5
 118 0048 FFF7FEFF 		bl	chSchReadyI
 119              	.LVL10:
 120 004c F0E7     		b	.L3
 121              	.LVL11:
 122              	.L5:
 123              		.loc 1 71 0 discriminator 1
 124 004e 0348     		ldr	r0, .L7+4
 125              	.LVL12:
 126 0050 FFF7FEFF 		bl	chDbgPanic
 127              	.LVL13:
 128 0054 DAE7     		b	.L2
 129              	.L8:
 130 0056 00BF     		.align	2
 131              	.L7:
 132 0058 00000000 		.word	rlist
 133 005c 00000000 		.word	.LC0
 134              		.cfi_endproc
 135              	.LFE7:
 136              		.size	chMsgSend, .-chMsgSend
 137              		.section	.text.chMsgWait,"ax",%progbits
 138              		.align	2
 139              		.p2align 4,,15
 140              		.global	chMsgWait
 141              		.thumb
 142              		.thumb_func
 143              		.type	chMsgWait, %function
 144              	chMsgWait:
 145              	.LFB8:
 146              		.loc 1 99 0
 147              		.cfi_startproc
 148              		@ args = 0, pretend = 0, frame = 0
 149              		@ frame_needed = 0, uses_anonymous_args = 0
 150 0000 38B5     		push	{r3, r4, r5, lr}
 151              		.cfi_def_cfa_offset 16
 152              		.cfi_offset 3, -16
 153              		.cfi_offset 4, -12
 154              		.cfi_offset 5, -8
 155              		.cfi_offset 14, -4
 156              	.LBB16:
 157              		.loc 1 102 0
 158 0002 2023     		movs	r3, #32
 159              	@ 102 "../../../os/kernel/src/chmsg.c" 1
 160 0004 83F31188 		msr     BASEPRI, r3
 161              	@ 0 "" 2
 162              		.thumb
 163              	.LBE16:
 164              		.loc 1 103 0
 165 0008 0E4D     		ldr	r5, .L12
 166              		.loc 1 102 0
 167 000a FFF7FEFF 		bl	dbg_check_lock
 168              	.LVL14:
 169              		.loc 1 103 0
 170 000e AA69     		ldr	r2, [r5, #24]
 171 0010 1346     		mov	r3, r2
ARM GAS  /tmp/ccx8r5N9.s 			page 4


 172 0012 53F8304F 		ldr	r4, [r3, #48]!
 173 0016 9C42     		cmp	r4, r3
 174 0018 0CD0     		beq	.L11
 175              	.L10:
 176              	.LVL15:
 177              	.LBB17:
 178              	.LBB18:
 179              		.loc 2 55 0
 180 001a 2168     		ldr	r1, [r4]
 181 001c 1163     		str	r1, [r2, #48]
 182              	.LBE18:
 183              	.LBE17:
 184              		.loc 1 106 0
 185 001e 0B22     		movs	r2, #11
 186              	.LBB20:
 187              	.LBB19:
 188              		.loc 2 55 0
 189 0020 4B60     		str	r3, [r1, #4]
 190              	.LBE19:
 191              	.LBE20:
 192              		.loc 1 106 0
 193 0022 84F82020 		strb	r2, [r4, #32]
 194              		.loc 1 107 0
 195 0026 FFF7FEFF 		bl	dbg_check_unlock
 196              	.LVL16:
 197              	.LBB21:
 198 002a 0023     		movs	r3, #0
 199              	@ 107 "../../../os/kernel/src/chmsg.c" 1
 200 002c 83F31188 		msr     BASEPRI, r3
 201              	@ 0 "" 2
 202              		.thumb
 203              	.LBE21:
 204              		.loc 1 109 0
 205 0030 2046     		mov	r0, r4
 206 0032 38BD     		pop	{r3, r4, r5, pc}
 207              	.LVL17:
 208              	.L11:
 209              		.loc 1 104 0
 210 0034 0C20     		movs	r0, #12
 211 0036 FFF7FEFF 		bl	chSchGoSleepS
 212              	.LVL18:
 213 003a AA69     		ldr	r2, [r5, #24]
 214 003c 146B     		ldr	r4, [r2, #48]
 215 003e 02F13003 		add	r3, r2, #48
 216 0042 EAE7     		b	.L10
 217              	.L13:
 218              		.align	2
 219              	.L12:
 220 0044 00000000 		.word	rlist
 221              		.cfi_endproc
 222              	.LFE8:
 223              		.size	chMsgWait, .-chMsgWait
 224 0048 AFF30080 		.section	.text.chMsgRelease,"ax",%progbits
 224      AFF30080 
 225              		.align	2
 226              		.p2align 4,,15
 227              		.global	chMsgRelease
ARM GAS  /tmp/ccx8r5N9.s 			page 5


 228              		.thumb
 229              		.thumb_func
 230              		.type	chMsgRelease, %function
 231              	chMsgRelease:
 232              	.LFB9:
 233              		.loc 1 121 0
 234              		.cfi_startproc
 235              		@ args = 0, pretend = 0, frame = 0
 236              		@ frame_needed = 0, uses_anonymous_args = 0
 237              	.LVL19:
 238 0000 38B5     		push	{r3, r4, r5, lr}
 239              		.cfi_def_cfa_offset 16
 240              		.cfi_offset 3, -16
 241              		.cfi_offset 4, -12
 242              		.cfi_offset 5, -8
 243              		.cfi_offset 14, -4
 244              		.loc 1 121 0
 245 0002 0446     		mov	r4, r0
 246 0004 0D46     		mov	r5, r1
 247              	.LBB22:
 248              		.loc 1 123 0
 249 0006 2023     		movs	r3, #32
 250              	@ 123 "../../../os/kernel/src/chmsg.c" 1
 251 0008 83F31188 		msr     BASEPRI, r3
 252              	@ 0 "" 2
 253              		.thumb
 254              	.LBE22:
 255 000c FFF7FEFF 		bl	dbg_check_lock
 256              	.LVL20:
 257              		.loc 1 124 0
 258 0010 94F82030 		ldrb	r3, [r4, #32]	@ zero_extendqisi2
 259 0014 0B2B     		cmp	r3, #11
 260 0016 02D0     		beq	.L15
 261              		.loc 1 124 0 is_stmt 0 discriminator 1
 262 0018 0648     		ldr	r0, .L19
 263 001a FFF7FEFF 		bl	chDbgPanic
 264              	.LVL21:
 265              	.L15:
 266              		.loc 1 126 0 is_stmt 1
 267 001e 2046     		mov	r0, r4
 268 0020 2946     		mov	r1, r5
 269 0022 FFF7FEFF 		bl	chSchWakeupS
 270              	.LVL22:
 271              		.loc 1 127 0
 272 0026 FFF7FEFF 		bl	dbg_check_unlock
 273              	.LVL23:
 274              	.LBB23:
 275 002a 0023     		movs	r3, #0
 276              	@ 127 "../../../os/kernel/src/chmsg.c" 1
 277 002c 83F31188 		msr     BASEPRI, r3
 278              	@ 0 "" 2
 279              		.thumb
 280 0030 38BD     		pop	{r3, r4, r5, pc}
 281              	.LVL24:
 282              	.L20:
 283 0032 00BF     		.align	2
 284              	.L19:
ARM GAS  /tmp/ccx8r5N9.s 			page 6


 285 0034 10000000 		.word	.LC1
 286              	.LBE23:
 287              		.cfi_endproc
 288              	.LFE9:
 289              		.size	chMsgRelease, .-chMsgRelease
 290 0038 AFF30080 		.section	.rodata.str1.4,"aMS",%progbits,1
 290      AFF30080 
 291              		.align	2
 292              	.LC0:
 293 0000 2263684D 		.ascii	"\"chMsgSend\"()\000"
 293      73675365 
 293      6E642228 
 293      2900
 294 000e 0000     		.space	2
 295              	.LC1:
 296 0010 63684D73 		.ascii	"chMsgRelease(), #1\000"
 296      6752656C 
 296      65617365 
 296      28292C20 
 296      233100
 297 0023 00       		.text
 298              	.Letext0:
 299              		.file 3 "/usr/local/csl/gcc-arm-none-eabi-4_8-2013q4/arm-none-eabi/include/stdint.h"
 300              		.file 4 "../../../os/ports/GCC/ARMCMx/chtypes.h"
 301              		.file 5 "../../../os/kernel/include/chlists.h"
 302              		.file 6 "../../../os/kernel/include/chthreads.h"
 303              		.file 7 "../../../os/ports/GCC/ARMCMx/chcore_v7m.h"
 304              		.file 8 "../../../os/kernel/include/chschd.h"
 305              		.file 9 "../../../os/kernel/include/chmtx.h"
 306              		.file 10 "../../../os/kernel/include/chdebug.h"
 307              		.section	.debug_info,"",%progbits
 308              	.Ldebug_info0:
 309 0000 FC060000 		.4byte	0x6fc
 310 0004 0400     		.2byte	0x4
 311 0006 00000000 		.4byte	.Ldebug_abbrev0
 312 000a 04       		.byte	0x4
 313 000b 01       		.uleb128 0x1
 314 000c C6010000 		.4byte	.LASF72
 315 0010 01       		.byte	0x1
 316 0011 92000000 		.4byte	.LASF73
 317 0015 EB030000 		.4byte	.LASF74
 318 0019 30000000 		.4byte	.Ldebug_ranges0+0x30
 319 001d 00000000 		.4byte	0
 320 0021 00000000 		.4byte	.Ldebug_line0
 321 0025 02       		.uleb128 0x2
 322 0026 04       		.byte	0x4
 323 0027 05       		.byte	0x5
 324 0028 696E7400 		.ascii	"int\000"
 325 002c 03       		.uleb128 0x3
 326 002d 04       		.byte	0x4
 327 002e 07       		.byte	0x7
 328 002f E8000000 		.4byte	.LASF0
 329 0033 03       		.uleb128 0x3
 330 0034 01       		.byte	0x1
 331 0035 06       		.byte	0x6
 332 0036 63000000 		.4byte	.LASF1
 333 003a 04       		.uleb128 0x4
ARM GAS  /tmp/ccx8r5N9.s 			page 7


 334 003b BD030000 		.4byte	.LASF5
 335 003f 03       		.byte	0x3
 336 0040 2A       		.byte	0x2a
 337 0041 45000000 		.4byte	0x45
 338 0045 03       		.uleb128 0x3
 339 0046 01       		.byte	0x1
 340 0047 08       		.byte	0x8
 341 0048 AE020000 		.4byte	.LASF2
 342 004c 03       		.uleb128 0x3
 343 004d 02       		.byte	0x2
 344 004e 05       		.byte	0x5
 345 004f C6020000 		.4byte	.LASF3
 346 0053 03       		.uleb128 0x3
 347 0054 02       		.byte	0x2
 348 0055 07       		.byte	0x7
 349 0056 0F010000 		.4byte	.LASF4
 350 005a 04       		.uleb128 0x4
 351 005b A6020000 		.4byte	.LASF6
 352 005f 03       		.byte	0x3
 353 0060 4F       		.byte	0x4f
 354 0061 65000000 		.4byte	0x65
 355 0065 03       		.uleb128 0x3
 356 0066 04       		.byte	0x4
 357 0067 05       		.byte	0x5
 358 0068 89000000 		.4byte	.LASF7
 359 006c 04       		.uleb128 0x4
 360 006d 2C030000 		.4byte	.LASF8
 361 0071 03       		.byte	0x3
 362 0072 50       		.byte	0x50
 363 0073 77000000 		.4byte	0x77
 364 0077 03       		.uleb128 0x3
 365 0078 04       		.byte	0x4
 366 0079 07       		.byte	0x7
 367 007a F5000000 		.4byte	.LASF9
 368 007e 03       		.uleb128 0x3
 369 007f 08       		.byte	0x8
 370 0080 05       		.byte	0x5
 371 0081 55000000 		.4byte	.LASF10
 372 0085 04       		.uleb128 0x4
 373 0086 25000000 		.4byte	.LASF11
 374 008a 03       		.byte	0x3
 375 008b 78       		.byte	0x78
 376 008c 90000000 		.4byte	0x90
 377 0090 03       		.uleb128 0x3
 378 0091 08       		.byte	0x8
 379 0092 07       		.byte	0x7
 380 0093 2E000000 		.4byte	.LASF12
 381 0097 03       		.uleb128 0x3
 382 0098 01       		.byte	0x1
 383 0099 02       		.byte	0x2
 384 009a A0020000 		.4byte	.LASF13
 385 009e 04       		.uleb128 0x4
 386 009f 28010000 		.4byte	.LASF14
 387 00a3 04       		.byte	0x4
 388 00a4 25       		.byte	0x25
 389 00a5 3A000000 		.4byte	0x3a
 390 00a9 04       		.uleb128 0x4
ARM GAS  /tmp/ccx8r5N9.s 			page 8


 391 00aa BB000000 		.4byte	.LASF15
 392 00ae 04       		.byte	0x4
 393 00af 26       		.byte	0x26
 394 00b0 3A000000 		.4byte	0x3a
 395 00b4 04       		.uleb128 0x4
 396 00b5 AF010000 		.4byte	.LASF16
 397 00b9 04       		.byte	0x4
 398 00ba 27       		.byte	0x27
 399 00bb 3A000000 		.4byte	0x3a
 400 00bf 04       		.uleb128 0x4
 401 00c0 7F000000 		.4byte	.LASF17
 402 00c4 04       		.byte	0x4
 403 00c5 28       		.byte	0x28
 404 00c6 3A000000 		.4byte	0x3a
 405 00ca 04       		.uleb128 0x4
 406 00cb BE010000 		.4byte	.LASF18
 407 00cf 04       		.byte	0x4
 408 00d0 29       		.byte	0x29
 409 00d1 6C000000 		.4byte	0x6c
 410 00d5 04       		.uleb128 0x4
 411 00d6 22010000 		.4byte	.LASF19
 412 00da 04       		.byte	0x4
 413 00db 2A       		.byte	0x2a
 414 00dc 5A000000 		.4byte	0x5a
 415 00e0 04       		.uleb128 0x4
 416 00e1 3C010000 		.4byte	.LASF20
 417 00e5 04       		.byte	0x4
 418 00e6 2C       		.byte	0x2c
 419 00e7 6C000000 		.4byte	0x6c
 420 00eb 04       		.uleb128 0x4
 421 00ec 61030000 		.4byte	.LASF21
 422 00f0 04       		.byte	0x4
 423 00f1 2E       		.byte	0x2e
 424 00f2 6C000000 		.4byte	0x6c
 425 00f6 04       		.uleb128 0x4
 426 00f7 FF020000 		.4byte	.LASF22
 427 00fb 05       		.byte	0x5
 428 00fc 23       		.byte	0x23
 429 00fd 01010000 		.4byte	0x101
 430 0101 05       		.uleb128 0x5
 431 0102 FF020000 		.4byte	.LASF22
 432 0106 4C       		.byte	0x4c
 433 0107 06       		.byte	0x6
 434 0108 57       		.byte	0x57
 435 0109 0A020000 		.4byte	0x20a
 436 010d 06       		.uleb128 0x6
 437 010e F0020000 		.4byte	.LASF23
 438 0112 06       		.byte	0x6
 439 0113 58       		.byte	0x58
 440 0114 2B020000 		.4byte	0x22b
 441 0118 00       		.byte	0
 442 0119 06       		.uleb128 0x6
 443 011a B7010000 		.4byte	.LASF24
 444 011e 06       		.byte	0x6
 445 011f 5A       		.byte	0x5a
 446 0120 2B020000 		.4byte	0x22b
 447 0124 04       		.byte	0x4
ARM GAS  /tmp/ccx8r5N9.s 			page 9


 448 0125 06       		.uleb128 0x6
 449 0126 4E000000 		.4byte	.LASF25
 450 012a 06       		.byte	0x6
 451 012b 5C       		.byte	0x5c
 452 012c CA000000 		.4byte	0xca
 453 0130 08       		.byte	0x8
 454 0131 06       		.uleb128 0x6
 455 0132 DB030000 		.4byte	.LASF26
 456 0136 06       		.byte	0x6
 457 0137 5D       		.byte	0x5d
 458 0138 F0020000 		.4byte	0x2f0
 459 013c 0C       		.byte	0xc
 460 013d 06       		.uleb128 0x6
 461 013e C4000000 		.4byte	.LASF27
 462 0142 06       		.byte	0x6
 463 0143 5F       		.byte	0x5f
 464 0144 2B020000 		.4byte	0x22b
 465 0148 10       		.byte	0x10
 466 0149 06       		.uleb128 0x6
 467 014a 71010000 		.4byte	.LASF28
 468 014e 06       		.byte	0x6
 469 014f 60       		.byte	0x60
 470 0150 2B020000 		.4byte	0x22b
 471 0154 14       		.byte	0x14
 472 0155 06       		.uleb128 0x6
 473 0156 CC030000 		.4byte	.LASF29
 474 015a 06       		.byte	0x6
 475 015b 67       		.byte	0x67
 476 015c F0030000 		.4byte	0x3f0
 477 0160 18       		.byte	0x18
 478 0161 06       		.uleb128 0x6
 479 0162 DD000000 		.4byte	.LASF30
 480 0166 06       		.byte	0x6
 481 0167 6D       		.byte	0x6d
 482 0168 02040000 		.4byte	0x402
 483 016c 1C       		.byte	0x1c
 484 016d 06       		.uleb128 0x6
 485 016e D0020000 		.4byte	.LASF31
 486 0172 06       		.byte	0x6
 487 0173 72       		.byte	0x72
 488 0174 A9000000 		.4byte	0xa9
 489 0178 20       		.byte	0x20
 490 0179 06       		.uleb128 0x6
 491 017a F7020000 		.4byte	.LASF32
 492 017e 06       		.byte	0x6
 493 017f 76       		.byte	0x76
 494 0180 9E000000 		.4byte	0x9e
 495 0184 21       		.byte	0x21
 496 0185 06       		.uleb128 0x6
 497 0186 A6030000 		.4byte	.LASF33
 498 018a 06       		.byte	0x6
 499 018b 7B       		.byte	0x7b
 500 018c B4000000 		.4byte	0xb4
 501 0190 22       		.byte	0x22
 502 0191 06       		.uleb128 0x6
 503 0192 D8020000 		.4byte	.LASF34
 504 0196 06       		.byte	0x6
ARM GAS  /tmp/ccx8r5N9.s 			page 10


 505 0197 81       		.byte	0x81
 506 0198 BF000000 		.4byte	0xbf
 507 019c 23       		.byte	0x23
 508 019d 06       		.uleb128 0x6
 509 019e 76030000 		.4byte	.LASF35
 510 01a2 06       		.byte	0x6
 511 01a3 88       		.byte	0x88
 512 01a4 18030000 		.4byte	0x318
 513 01a8 24       		.byte	0x24
 514 01a9 07       		.uleb128 0x7
 515 01aa 705F7500 		.ascii	"p_u\000"
 516 01ae 06       		.byte	0x6
 517 01af AD       		.byte	0xad
 518 01b0 BB030000 		.4byte	0x3bb
 519 01b4 28       		.byte	0x28
 520 01b5 06       		.uleb128 0x6
 521 01b6 E1030000 		.4byte	.LASF36
 522 01ba 06       		.byte	0x6
 523 01bb B2       		.byte	0xb2
 524 01bc 51020000 		.4byte	0x251
 525 01c0 2C       		.byte	0x2c
 526 01c1 06       		.uleb128 0x6
 527 01c2 84030000 		.4byte	.LASF37
 528 01c6 06       		.byte	0x6
 529 01c7 B8       		.byte	0xb8
 530 01c8 31020000 		.4byte	0x231
 531 01cc 30       		.byte	0x30
 532 01cd 06       		.uleb128 0x6
 533 01ce 00000000 		.4byte	.LASF38
 534 01d2 06       		.byte	0x6
 535 01d3 BC       		.byte	0xbc
 536 01d4 D5000000 		.4byte	0xd5
 537 01d8 38       		.byte	0x38
 538 01d9 06       		.uleb128 0x6
 539 01da 21030000 		.4byte	.LASF39
 540 01de 06       		.byte	0x6
 541 01df C2       		.byte	0xc2
 542 01e0 E0000000 		.4byte	0xe0
 543 01e4 3C       		.byte	0x3c
 544 01e5 06       		.uleb128 0x6
 545 01e6 BC020000 		.4byte	.LASF40
 546 01ea 06       		.byte	0x6
 547 01eb C9       		.byte	0xc9
 548 01ec 08040000 		.4byte	0x408
 549 01f0 40       		.byte	0x40
 550 01f1 06       		.uleb128 0x6
 551 01f2 6B030000 		.4byte	.LASF41
 552 01f6 06       		.byte	0x6
 553 01f7 CD       		.byte	0xcd
 554 01f8 CA000000 		.4byte	0xca
 555 01fc 44       		.byte	0x44
 556 01fd 06       		.uleb128 0x6
 557 01fe 6F000000 		.4byte	.LASF42
 558 0202 06       		.byte	0x6
 559 0203 D3       		.byte	0xd3
 560 0204 67020000 		.4byte	0x267
 561 0208 48       		.byte	0x48
ARM GAS  /tmp/ccx8r5N9.s 			page 11


 562 0209 00       		.byte	0
 563 020a 08       		.uleb128 0x8
 564 020b 08       		.byte	0x8
 565 020c 05       		.byte	0x5
 566 020d 5A       		.byte	0x5a
 567 020e 2B020000 		.4byte	0x22b
 568 0212 06       		.uleb128 0x6
 569 0213 F0020000 		.4byte	.LASF23
 570 0217 05       		.byte	0x5
 571 0218 5B       		.byte	0x5b
 572 0219 2B020000 		.4byte	0x22b
 573 021d 00       		.byte	0
 574 021e 06       		.uleb128 0x6
 575 021f B7010000 		.4byte	.LASF24
 576 0223 05       		.byte	0x5
 577 0224 5D       		.byte	0x5d
 578 0225 2B020000 		.4byte	0x22b
 579 0229 04       		.byte	0x4
 580 022a 00       		.byte	0
 581 022b 09       		.uleb128 0x9
 582 022c 04       		.byte	0x4
 583 022d F6000000 		.4byte	0xf6
 584 0231 04       		.uleb128 0x4
 585 0232 7F010000 		.4byte	.LASF43
 586 0236 05       		.byte	0x5
 587 0237 5F       		.byte	0x5f
 588 0238 0A020000 		.4byte	0x20a
 589 023c 08       		.uleb128 0x8
 590 023d 04       		.byte	0x4
 591 023e 05       		.byte	0x5
 592 023f 64       		.byte	0x64
 593 0240 51020000 		.4byte	0x251
 594 0244 06       		.uleb128 0x6
 595 0245 F0020000 		.4byte	.LASF23
 596 0249 05       		.byte	0x5
 597 024a 66       		.byte	0x66
 598 024b 2B020000 		.4byte	0x22b
 599 024f 00       		.byte	0
 600 0250 00       		.byte	0
 601 0251 04       		.uleb128 0x4
 602 0252 30010000 		.4byte	.LASF44
 603 0256 05       		.byte	0x5
 604 0257 69       		.byte	0x69
 605 0258 3C020000 		.4byte	0x23c
 606 025c 04       		.uleb128 0x4
 607 025d D4000000 		.4byte	.LASF45
 608 0261 07       		.byte	0x7
 609 0262 DE       		.byte	0xde
 610 0263 67020000 		.4byte	0x267
 611 0267 0A       		.uleb128 0xa
 612 0268 04       		.byte	0x4
 613 0269 04       		.uleb128 0x4
 614 026a 4E010000 		.4byte	.LASF46
 615 026e 07       		.byte	0x7
 616 026f E4       		.byte	0xe4
 617 0270 85000000 		.4byte	0x85
 618 0274 0B       		.uleb128 0xb
ARM GAS  /tmp/ccx8r5N9.s 			page 12


 619 0275 7D030000 		.4byte	.LASF47
 620 0279 24       		.byte	0x24
 621 027a 07       		.byte	0x7
 622 027b 0501     		.2byte	0x105
 623 027d F0020000 		.4byte	0x2f0
 624 0281 0C       		.uleb128 0xc
 625 0282 723400   		.ascii	"r4\000"
 626 0285 07       		.byte	0x7
 627 0286 1801     		.2byte	0x118
 628 0288 5C020000 		.4byte	0x25c
 629 028c 00       		.byte	0
 630 028d 0C       		.uleb128 0xc
 631 028e 723500   		.ascii	"r5\000"
 632 0291 07       		.byte	0x7
 633 0292 1901     		.2byte	0x119
 634 0294 5C020000 		.4byte	0x25c
 635 0298 04       		.byte	0x4
 636 0299 0C       		.uleb128 0xc
 637 029a 723600   		.ascii	"r6\000"
 638 029d 07       		.byte	0x7
 639 029e 1A01     		.2byte	0x11a
 640 02a0 5C020000 		.4byte	0x25c
 641 02a4 08       		.byte	0x8
 642 02a5 0C       		.uleb128 0xc
 643 02a6 723700   		.ascii	"r7\000"
 644 02a9 07       		.byte	0x7
 645 02aa 1B01     		.2byte	0x11b
 646 02ac 5C020000 		.4byte	0x25c
 647 02b0 0C       		.byte	0xc
 648 02b1 0C       		.uleb128 0xc
 649 02b2 723800   		.ascii	"r8\000"
 650 02b5 07       		.byte	0x7
 651 02b6 1C01     		.2byte	0x11c
 652 02b8 5C020000 		.4byte	0x25c
 653 02bc 10       		.byte	0x10
 654 02bd 0C       		.uleb128 0xc
 655 02be 723900   		.ascii	"r9\000"
 656 02c1 07       		.byte	0x7
 657 02c2 1D01     		.2byte	0x11d
 658 02c4 5C020000 		.4byte	0x25c
 659 02c8 14       		.byte	0x14
 660 02c9 0C       		.uleb128 0xc
 661 02ca 72313000 		.ascii	"r10\000"
 662 02ce 07       		.byte	0x7
 663 02cf 1E01     		.2byte	0x11e
 664 02d1 5C020000 		.4byte	0x25c
 665 02d5 18       		.byte	0x18
 666 02d6 0C       		.uleb128 0xc
 667 02d7 72313100 		.ascii	"r11\000"
 668 02db 07       		.byte	0x7
 669 02dc 1F01     		.2byte	0x11f
 670 02de 5C020000 		.4byte	0x25c
 671 02e2 1C       		.byte	0x1c
 672 02e3 0C       		.uleb128 0xc
 673 02e4 6C7200   		.ascii	"lr\000"
 674 02e7 07       		.byte	0x7
 675 02e8 2001     		.2byte	0x120
ARM GAS  /tmp/ccx8r5N9.s 			page 13


 676 02ea 5C020000 		.4byte	0x25c
 677 02ee 20       		.byte	0x20
 678 02ef 00       		.byte	0
 679 02f0 0B       		.uleb128 0xb
 680 02f1 07010000 		.4byte	.LASF48
 681 02f5 04       		.byte	0x4
 682 02f6 07       		.byte	0x7
 683 02f7 2A01     		.2byte	0x12a
 684 02f9 0B030000 		.4byte	0x30b
 685 02fd 0C       		.uleb128 0xc
 686 02fe 72313300 		.ascii	"r13\000"
 687 0302 07       		.byte	0x7
 688 0303 2B01     		.2byte	0x12b
 689 0305 0B030000 		.4byte	0x30b
 690 0309 00       		.byte	0
 691 030a 00       		.byte	0
 692 030b 09       		.uleb128 0x9
 693 030c 04       		.byte	0x4
 694 030d 74020000 		.4byte	0x274
 695 0311 03       		.uleb128 0x3
 696 0312 04       		.byte	0x4
 697 0313 07       		.byte	0x7
 698 0314 59010000 		.4byte	.LASF49
 699 0318 0D       		.uleb128 0xd
 700 0319 EB000000 		.4byte	0xeb
 701 031d 08       		.uleb128 0x8
 702 031e 1C       		.byte	0x1c
 703 031f 08       		.byte	0x8
 704 0320 57       		.byte	0x57
 705 0321 6E030000 		.4byte	0x36e
 706 0325 06       		.uleb128 0x6
 707 0326 35030000 		.4byte	.LASF50
 708 032a 08       		.byte	0x8
 709 032b 58       		.byte	0x58
 710 032c 31020000 		.4byte	0x231
 711 0330 00       		.byte	0
 712 0331 06       		.uleb128 0x6
 713 0332 E2020000 		.4byte	.LASF51
 714 0336 08       		.byte	0x8
 715 0337 59       		.byte	0x59
 716 0338 CA000000 		.4byte	0xca
 717 033c 08       		.byte	0x8
 718 033d 06       		.uleb128 0x6
 719 033e 79010000 		.4byte	.LASF52
 720 0342 08       		.byte	0x8
 721 0343 5B       		.byte	0x5b
 722 0344 F0020000 		.4byte	0x2f0
 723 0348 0C       		.byte	0xc
 724 0349 06       		.uleb128 0x6
 725 034a CC000000 		.4byte	.LASF53
 726 034e 08       		.byte	0x8
 727 034f 5E       		.byte	0x5e
 728 0350 2B020000 		.4byte	0x22b
 729 0354 10       		.byte	0x10
 730 0355 06       		.uleb128 0x6
 731 0356 96010000 		.4byte	.LASF54
 732 035a 08       		.byte	0x8
ARM GAS  /tmp/ccx8r5N9.s 			page 14


 733 035b 5F       		.byte	0x5f
 734 035c 2B020000 		.4byte	0x22b
 735 0360 14       		.byte	0x14
 736 0361 06       		.uleb128 0x6
 737 0362 8C010000 		.4byte	.LASF55
 738 0366 08       		.byte	0x8
 739 0367 62       		.byte	0x62
 740 0368 2B020000 		.4byte	0x22b
 741 036c 18       		.byte	0x18
 742 036d 00       		.byte	0
 743 036e 04       		.uleb128 0x4
 744 036f AD030000 		.4byte	.LASF56
 745 0373 08       		.byte	0x8
 746 0374 64       		.byte	0x64
 747 0375 1D030000 		.4byte	0x31d
 748 0379 05       		.uleb128 0x5
 749 037a 48010000 		.4byte	.LASF57
 750 037e 10       		.byte	0x10
 751 037f 09       		.byte	0x9
 752 0380 25       		.byte	0x25
 753 0381 AA030000 		.4byte	0x3aa
 754 0385 06       		.uleb128 0x6
 755 0386 77000000 		.4byte	.LASF58
 756 038a 09       		.byte	0x9
 757 038b 26       		.byte	0x26
 758 038c 31020000 		.4byte	0x231
 759 0390 00       		.byte	0
 760 0391 06       		.uleb128 0x6
 761 0392 D3030000 		.4byte	.LASF59
 762 0396 09       		.byte	0x9
 763 0397 28       		.byte	0x28
 764 0398 2B020000 		.4byte	0x22b
 765 039c 08       		.byte	0x8
 766 039d 06       		.uleb128 0x6
 767 039e 5A030000 		.4byte	.LASF60
 768 03a2 09       		.byte	0x9
 769 03a3 2A       		.byte	0x2a
 770 03a4 AA030000 		.4byte	0x3aa
 771 03a8 0C       		.byte	0xc
 772 03a9 00       		.byte	0
 773 03aa 09       		.uleb128 0x9
 774 03ab 04       		.byte	0x4
 775 03ac 79030000 		.4byte	0x379
 776 03b0 04       		.uleb128 0x4
 777 03b1 48010000 		.4byte	.LASF57
 778 03b5 09       		.byte	0x9
 779 03b6 2C       		.byte	0x2c
 780 03b7 79030000 		.4byte	0x379
 781 03bb 0E       		.uleb128 0xe
 782 03bc 04       		.byte	0x4
 783 03bd 06       		.byte	0x6
 784 03be 8F       		.byte	0x8f
 785 03bf F0030000 		.4byte	0x3f0
 786 03c3 0F       		.uleb128 0xf
 787 03c4 1E000000 		.4byte	.LASF61
 788 03c8 06       		.byte	0x6
 789 03c9 96       		.byte	0x96
ARM GAS  /tmp/ccx8r5N9.s 			page 15


 790 03ca D5000000 		.4byte	0xd5
 791 03ce 0F       		.uleb128 0xf
 792 03cf 45000000 		.4byte	.LASF62
 793 03d3 06       		.byte	0x6
 794 03d4 9D       		.byte	0x9d
 795 03d5 D5000000 		.4byte	0xd5
 796 03d9 0F       		.uleb128 0xf
 797 03da C5030000 		.4byte	.LASF63
 798 03de 06       		.byte	0x6
 799 03df A4       		.byte	0xa4
 800 03e0 67020000 		.4byte	0x267
 801 03e4 0F       		.uleb128 0xf
 802 03e5 E9020000 		.4byte	.LASF64
 803 03e9 06       		.byte	0x6
 804 03ea AB       		.byte	0xab
 805 03eb E0000000 		.4byte	0xe0
 806 03ef 00       		.byte	0
 807 03f0 09       		.uleb128 0x9
 808 03f1 04       		.byte	0x4
 809 03f2 F6030000 		.4byte	0x3f6
 810 03f6 10       		.uleb128 0x10
 811 03f7 FB030000 		.4byte	0x3fb
 812 03fb 03       		.uleb128 0x3
 813 03fc 01       		.byte	0x1
 814 03fd 08       		.byte	0x8
 815 03fe 49030000 		.4byte	.LASF65
 816 0402 09       		.uleb128 0x9
 817 0403 04       		.byte	0x4
 818 0404 69020000 		.4byte	0x269
 819 0408 09       		.uleb128 0x9
 820 0409 04       		.byte	0x4
 821 040a B0030000 		.4byte	0x3b0
 822 040e 11       		.uleb128 0x11
 823 040f 06000000 		.4byte	.LASF75
 824 0413 02       		.byte	0x2
 825 0414 2D       		.byte	0x2d
 826 0415 03       		.byte	0x3
 827 0416 30040000 		.4byte	0x430
 828 041a 12       		.uleb128 0x12
 829 041b 747000   		.ascii	"tp\000"
 830 041e 02       		.byte	0x2
 831 041f 2D       		.byte	0x2d
 832 0420 2B020000 		.4byte	0x22b
 833 0424 12       		.uleb128 0x12
 834 0425 74717000 		.ascii	"tqp\000"
 835 0429 02       		.byte	0x2
 836 042a 2D       		.byte	0x2d
 837 042b 30040000 		.4byte	0x430
 838 042f 00       		.byte	0
 839 0430 09       		.uleb128 0x9
 840 0431 04       		.byte	0x4
 841 0432 31020000 		.4byte	0x231
 842 0436 13       		.uleb128 0x13
 843 0437 4E030000 		.4byte	.LASF76
 844 043b 02       		.byte	0x2
 845 043c 34       		.byte	0x34
 846 043d 2B020000 		.4byte	0x22b
ARM GAS  /tmp/ccx8r5N9.s 			page 16


 847 0441 03       		.byte	0x3
 848 0442 5C040000 		.4byte	0x45c
 849 0446 12       		.uleb128 0x12
 850 0447 74717000 		.ascii	"tqp\000"
 851 044b 02       		.byte	0x2
 852 044c 34       		.byte	0x34
 853 044d 30040000 		.4byte	0x430
 854 0451 14       		.uleb128 0x14
 855 0452 747000   		.ascii	"tp\000"
 856 0455 02       		.byte	0x2
 857 0456 35       		.byte	0x35
 858 0457 2B020000 		.4byte	0x22b
 859 045b 00       		.byte	0
 860 045c 15       		.uleb128 0x15
 861 045d B1000000 		.4byte	.LASF66
 862 0461 01       		.byte	0x1
 863 0462 44       		.byte	0x44
 864 0463 D5000000 		.4byte	0xd5
 865 0467 00000000 		.4byte	.LFB7
 866 046b 60000000 		.4byte	.LFE7-.LFB7
 867 046f 01       		.uleb128 0x1
 868 0470 9C       		.byte	0x9c
 869 0471 4A050000 		.4byte	0x54a
 870 0475 16       		.uleb128 0x16
 871 0476 747000   		.ascii	"tp\000"
 872 0479 01       		.byte	0x1
 873 047a 44       		.byte	0x44
 874 047b 2B020000 		.4byte	0x22b
 875 047f 00000000 		.4byte	.LLST0
 876 0483 16       		.uleb128 0x16
 877 0484 6D736700 		.ascii	"msg\000"
 878 0488 01       		.byte	0x1
 879 0489 44       		.byte	0x44
 880 048a D5000000 		.4byte	0xd5
 881 048e 34000000 		.4byte	.LLST1
 882 0492 17       		.uleb128 0x17
 883 0493 63747000 		.ascii	"ctp\000"
 884 0497 01       		.byte	0x1
 885 0498 45       		.byte	0x45
 886 0499 2B020000 		.4byte	0x22b
 887 049d 7E000000 		.4byte	.LLST2
 888 04a1 18       		.uleb128 0x18
 889 04a2 0C000000 		.4byte	.LBB10
 890 04a6 06000000 		.4byte	.LBE10-.LBB10
 891 04aa BC040000 		.4byte	0x4bc
 892 04ae 19       		.uleb128 0x19
 893 04af 746D7000 		.ascii	"tmp\000"
 894 04b3 01       		.byte	0x1
 895 04b4 49       		.byte	0x49
 896 04b5 6C000000 		.4byte	0x6c
 897 04b9 01       		.uleb128 0x1
 898 04ba 53       		.byte	0x53
 899 04bb 00       		.byte	0
 900 04bc 1A       		.uleb128 0x1a
 901 04bd 0E040000 		.4byte	0x40e
 902 04c1 20000000 		.4byte	.LBB11
 903 04c5 00000000 		.4byte	.Ldebug_ranges0+0
ARM GAS  /tmp/ccx8r5N9.s 			page 17


 904 04c9 01       		.byte	0x1
 905 04ca 4C       		.byte	0x4c
 906 04cb E2040000 		.4byte	0x4e2
 907 04cf 1B       		.uleb128 0x1b
 908 04d0 24040000 		.4byte	0x424
 909 04d4 9C000000 		.4byte	.LLST3
 910 04d8 1B       		.uleb128 0x1b
 911 04d9 1A040000 		.4byte	0x41a
 912 04dd D4000000 		.4byte	.LLST4
 913 04e1 00       		.byte	0
 914 04e2 18       		.uleb128 0x18
 915 04e3 3C000000 		.4byte	.LBB15
 916 04e7 06000000 		.4byte	.LBE15-.LBB15
 917 04eb FD040000 		.4byte	0x4fd
 918 04ef 19       		.uleb128 0x19
 919 04f0 746D7000 		.ascii	"tmp\000"
 920 04f4 01       		.byte	0x1
 921 04f5 51       		.byte	0x51
 922 04f6 6C000000 		.4byte	0x6c
 923 04fa 01       		.uleb128 0x1
 924 04fb 53       		.byte	0x53
 925 04fc 00       		.byte	0
 926 04fd 1C       		.uleb128 0x1c
 927 04fe 16000000 		.4byte	.LVL3
 928 0502 A8060000 		.4byte	0x6a8
 929 0506 1D       		.uleb128 0x1d
 930 0507 36000000 		.4byte	.LVL6
 931 050b AF060000 		.4byte	0x6af
 932 050f 19050000 		.4byte	0x519
 933 0513 1E       		.uleb128 0x1e
 934 0514 01       		.uleb128 0x1
 935 0515 50       		.byte	0x50
 936 0516 01       		.uleb128 0x1
 937 0517 3A       		.byte	0x3a
 938 0518 00       		.byte	0
 939 0519 1C       		.uleb128 0x1c
 940 051a 3C000000 		.4byte	.LVL8
 941 051e C0060000 		.4byte	0x6c0
 942 0522 1D       		.uleb128 0x1d
 943 0523 4C000000 		.4byte	.LVL10
 944 0527 C7060000 		.4byte	0x6c7
 945 052b 36050000 		.4byte	0x536
 946 052f 1E       		.uleb128 0x1e
 947 0530 01       		.uleb128 0x1
 948 0531 50       		.byte	0x50
 949 0532 02       		.uleb128 0x2
 950 0533 75       		.byte	0x75
 951 0534 00       		.sleb128 0
 952 0535 00       		.byte	0
 953 0536 1F       		.uleb128 0x1f
 954 0537 54000000 		.4byte	.LVL13
 955 053b DC060000 		.4byte	0x6dc
 956 053f 1E       		.uleb128 0x1e
 957 0540 01       		.uleb128 0x1
 958 0541 50       		.byte	0x50
 959 0542 05       		.uleb128 0x5
 960 0543 03       		.byte	0x3
ARM GAS  /tmp/ccx8r5N9.s 			page 18


 961 0544 00000000 		.4byte	.LC0
 962 0548 00       		.byte	0
 963 0549 00       		.byte	0
 964 054a 15       		.uleb128 0x15
 965 054b 9C030000 		.4byte	.LASF67
 966 054f 01       		.byte	0x1
 967 0550 63       		.byte	0x63
 968 0551 2B020000 		.4byte	0x22b
 969 0555 00000000 		.4byte	.LFB8
 970 0559 48000000 		.4byte	.LFE8-.LFB8
 971 055d 01       		.uleb128 0x1
 972 055e 9C       		.byte	0x9c
 973 055f F1050000 		.4byte	0x5f1
 974 0563 14       		.uleb128 0x14
 975 0564 747000   		.ascii	"tp\000"
 976 0567 01       		.byte	0x1
 977 0568 64       		.byte	0x64
 978 0569 2B020000 		.4byte	0x22b
 979 056d 18       		.uleb128 0x18
 980 056e 02000000 		.4byte	.LBB16
 981 0572 06000000 		.4byte	.LBE16-.LBB16
 982 0576 88050000 		.4byte	0x588
 983 057a 19       		.uleb128 0x19
 984 057b 746D7000 		.ascii	"tmp\000"
 985 057f 01       		.byte	0x1
 986 0580 66       		.byte	0x66
 987 0581 6C000000 		.4byte	0x6c
 988 0585 01       		.uleb128 0x1
 989 0586 53       		.byte	0x53
 990 0587 00       		.byte	0
 991 0588 1A       		.uleb128 0x1a
 992 0589 36040000 		.4byte	0x436
 993 058d 1A000000 		.4byte	.LBB17
 994 0591 18000000 		.4byte	.Ldebug_ranges0+0x18
 995 0595 01       		.byte	0x1
 996 0596 69       		.byte	0x69
 997 0597 B4050000 		.4byte	0x5b4
 998 059b 1B       		.uleb128 0x1b
 999 059c 46040000 		.4byte	0x446
 1000 05a0 F2000000 		.4byte	.LLST5
 1001 05a4 20       		.uleb128 0x20
 1002 05a5 18000000 		.4byte	.Ldebug_ranges0+0x18
 1003 05a9 21       		.uleb128 0x21
 1004 05aa 51040000 		.4byte	0x451
 1005 05ae 05010000 		.4byte	.LLST6
 1006 05b2 00       		.byte	0
 1007 05b3 00       		.byte	0
 1008 05b4 18       		.uleb128 0x18
 1009 05b5 2A000000 		.4byte	.LBB21
 1010 05b9 06000000 		.4byte	.LBE21-.LBB21
 1011 05bd CF050000 		.4byte	0x5cf
 1012 05c1 19       		.uleb128 0x19
 1013 05c2 746D7000 		.ascii	"tmp\000"
 1014 05c6 01       		.byte	0x1
 1015 05c7 6B       		.byte	0x6b
 1016 05c8 6C000000 		.4byte	0x6c
 1017 05cc 01       		.uleb128 0x1
ARM GAS  /tmp/ccx8r5N9.s 			page 19


 1018 05cd 53       		.byte	0x53
 1019 05ce 00       		.byte	0
 1020 05cf 1C       		.uleb128 0x1c
 1021 05d0 0E000000 		.4byte	.LVL14
 1022 05d4 A8060000 		.4byte	0x6a8
 1023 05d8 1C       		.uleb128 0x1c
 1024 05d9 2A000000 		.4byte	.LVL16
 1025 05dd C0060000 		.4byte	0x6c0
 1026 05e1 1F       		.uleb128 0x1f
 1027 05e2 3A000000 		.4byte	.LVL18
 1028 05e6 AF060000 		.4byte	0x6af
 1029 05ea 1E       		.uleb128 0x1e
 1030 05eb 01       		.uleb128 0x1
 1031 05ec 50       		.byte	0x50
 1032 05ed 01       		.uleb128 0x1
 1033 05ee 3C       		.byte	0x3c
 1034 05ef 00       		.byte	0
 1035 05f0 00       		.byte	0
 1036 05f1 22       		.uleb128 0x22
 1037 05f2 06030000 		.4byte	.LASF77
 1038 05f6 01       		.byte	0x1
 1039 05f7 79       		.byte	0x79
 1040 05f8 00000000 		.4byte	.LFB9
 1041 05fc 38000000 		.4byte	.LFE9-.LFB9
 1042 0600 01       		.uleb128 0x1
 1043 0601 9C       		.byte	0x9c
 1044 0602 9D060000 		.4byte	0x69d
 1045 0606 16       		.uleb128 0x16
 1046 0607 747000   		.ascii	"tp\000"
 1047 060a 01       		.byte	0x1
 1048 060b 79       		.byte	0x79
 1049 060c 2B020000 		.4byte	0x22b
 1050 0610 18010000 		.4byte	.LLST7
 1051 0614 16       		.uleb128 0x16
 1052 0615 6D736700 		.ascii	"msg\000"
 1053 0619 01       		.byte	0x1
 1054 061a 79       		.byte	0x79
 1055 061b D5000000 		.4byte	0xd5
 1056 061f 44010000 		.4byte	.LLST8
 1057 0623 18       		.uleb128 0x18
 1058 0624 06000000 		.4byte	.LBB22
 1059 0628 06000000 		.4byte	.LBE22-.LBB22
 1060 062c 3E060000 		.4byte	0x63e
 1061 0630 19       		.uleb128 0x19
 1062 0631 746D7000 		.ascii	"tmp\000"
 1063 0635 01       		.byte	0x1
 1064 0636 7B       		.byte	0x7b
 1065 0637 6C000000 		.4byte	0x6c
 1066 063b 01       		.uleb128 0x1
 1067 063c 53       		.byte	0x53
 1068 063d 00       		.byte	0
 1069 063e 18       		.uleb128 0x18
 1070 063f 2A000000 		.4byte	.LBB23
 1071 0643 0E000000 		.4byte	.LBE23-.LBB23
 1072 0647 59060000 		.4byte	0x659
 1073 064b 19       		.uleb128 0x19
 1074 064c 746D7000 		.ascii	"tmp\000"
ARM GAS  /tmp/ccx8r5N9.s 			page 20


 1075 0650 01       		.byte	0x1
 1076 0651 7F       		.byte	0x7f
 1077 0652 6C000000 		.4byte	0x6c
 1078 0656 01       		.uleb128 0x1
 1079 0657 53       		.byte	0x53
 1080 0658 00       		.byte	0
 1081 0659 1C       		.uleb128 0x1c
 1082 065a 10000000 		.4byte	.LVL20
 1083 065e A8060000 		.4byte	0x6a8
 1084 0662 1D       		.uleb128 0x1d
 1085 0663 1E000000 		.4byte	.LVL21
 1086 0667 DC060000 		.4byte	0x6dc
 1087 066b 79060000 		.4byte	0x679
 1088 066f 1E       		.uleb128 0x1e
 1089 0670 01       		.uleb128 0x1
 1090 0671 50       		.byte	0x50
 1091 0672 05       		.uleb128 0x5
 1092 0673 03       		.byte	0x3
 1093 0674 10000000 		.4byte	.LC1
 1094 0678 00       		.byte	0
 1095 0679 1D       		.uleb128 0x1d
 1096 067a 26000000 		.4byte	.LVL22
 1097 067e ED060000 		.4byte	0x6ed
 1098 0682 93060000 		.4byte	0x693
 1099 0686 1E       		.uleb128 0x1e
 1100 0687 01       		.uleb128 0x1
 1101 0688 51       		.byte	0x51
 1102 0689 02       		.uleb128 0x2
 1103 068a 75       		.byte	0x75
 1104 068b 00       		.sleb128 0
 1105 068c 1E       		.uleb128 0x1e
 1106 068d 01       		.uleb128 0x1
 1107 068e 50       		.byte	0x50
 1108 068f 02       		.uleb128 0x2
 1109 0690 74       		.byte	0x74
 1110 0691 00       		.sleb128 0
 1111 0692 00       		.byte	0
 1112 0693 1C       		.uleb128 0x1c
 1113 0694 2A000000 		.4byte	.LVL23
 1114 0698 C0060000 		.4byte	0x6c0
 1115 069c 00       		.byte	0
 1116 069d 23       		.uleb128 0x23
 1117 069e B7030000 		.4byte	.LASF78
 1118 06a2 08       		.byte	0x8
 1119 06a3 68       		.byte	0x68
 1120 06a4 6E030000 		.4byte	0x36e
 1121 06a8 24       		.uleb128 0x24
 1122 06a9 62010000 		.4byte	.LASF68
 1123 06ad 0A       		.byte	0xa
 1124 06ae E0       		.byte	0xe0
 1125 06af 25       		.uleb128 0x25
 1126 06b0 13030000 		.4byte	.LASF70
 1127 06b4 08       		.byte	0x8
 1128 06b5 8C       		.byte	0x8c
 1129 06b6 C0060000 		.4byte	0x6c0
 1130 06ba 26       		.uleb128 0x26
 1131 06bb A9000000 		.4byte	0xa9
ARM GAS  /tmp/ccx8r5N9.s 			page 21


 1132 06bf 00       		.byte	0
 1133 06c0 24       		.uleb128 0x24
 1134 06c1 9E010000 		.4byte	.LASF69
 1135 06c5 0A       		.byte	0xa
 1136 06c6 E1       		.byte	0xe1
 1137 06c7 27       		.uleb128 0x27
 1138 06c8 3D030000 		.4byte	.LASF79
 1139 06cc 08       		.byte	0x8
 1140 06cd 89       		.byte	0x89
 1141 06ce 2B020000 		.4byte	0x22b
 1142 06d2 DC060000 		.4byte	0x6dc
 1143 06d6 26       		.uleb128 0x26
 1144 06d7 2B020000 		.4byte	0x22b
 1145 06db 00       		.byte	0
 1146 06dc 25       		.uleb128 0x25
 1147 06dd 13000000 		.4byte	.LASF71
 1148 06e1 0A       		.byte	0xa
 1149 06e2 EF       		.byte	0xef
 1150 06e3 ED060000 		.4byte	0x6ed
 1151 06e7 26       		.uleb128 0x26
 1152 06e8 F0030000 		.4byte	0x3f0
 1153 06ec 00       		.byte	0
 1154 06ed 28       		.uleb128 0x28
 1155 06ee 8F030000 		.4byte	.LASF80
 1156 06f2 08       		.byte	0x8
 1157 06f3 92       		.byte	0x92
 1158 06f4 26       		.uleb128 0x26
 1159 06f5 2B020000 		.4byte	0x22b
 1160 06f9 26       		.uleb128 0x26
 1161 06fa D5000000 		.4byte	0xd5
 1162 06fe 00       		.byte	0
 1163 06ff 00       		.byte	0
 1164              		.section	.debug_abbrev,"",%progbits
 1165              	.Ldebug_abbrev0:
 1166 0000 01       		.uleb128 0x1
 1167 0001 11       		.uleb128 0x11
 1168 0002 01       		.byte	0x1
 1169 0003 25       		.uleb128 0x25
 1170 0004 0E       		.uleb128 0xe
 1171 0005 13       		.uleb128 0x13
 1172 0006 0B       		.uleb128 0xb
 1173 0007 03       		.uleb128 0x3
 1174 0008 0E       		.uleb128 0xe
 1175 0009 1B       		.uleb128 0x1b
 1176 000a 0E       		.uleb128 0xe
 1177 000b 55       		.uleb128 0x55
 1178 000c 17       		.uleb128 0x17
 1179 000d 11       		.uleb128 0x11
 1180 000e 01       		.uleb128 0x1
 1181 000f 10       		.uleb128 0x10
 1182 0010 17       		.uleb128 0x17
 1183 0011 00       		.byte	0
 1184 0012 00       		.byte	0
 1185 0013 02       		.uleb128 0x2
 1186 0014 24       		.uleb128 0x24
 1187 0015 00       		.byte	0
 1188 0016 0B       		.uleb128 0xb
ARM GAS  /tmp/ccx8r5N9.s 			page 22


 1189 0017 0B       		.uleb128 0xb
 1190 0018 3E       		.uleb128 0x3e
 1191 0019 0B       		.uleb128 0xb
 1192 001a 03       		.uleb128 0x3
 1193 001b 08       		.uleb128 0x8
 1194 001c 00       		.byte	0
 1195 001d 00       		.byte	0
 1196 001e 03       		.uleb128 0x3
 1197 001f 24       		.uleb128 0x24
 1198 0020 00       		.byte	0
 1199 0021 0B       		.uleb128 0xb
 1200 0022 0B       		.uleb128 0xb
 1201 0023 3E       		.uleb128 0x3e
 1202 0024 0B       		.uleb128 0xb
 1203 0025 03       		.uleb128 0x3
 1204 0026 0E       		.uleb128 0xe
 1205 0027 00       		.byte	0
 1206 0028 00       		.byte	0
 1207 0029 04       		.uleb128 0x4
 1208 002a 16       		.uleb128 0x16
 1209 002b 00       		.byte	0
 1210 002c 03       		.uleb128 0x3
 1211 002d 0E       		.uleb128 0xe
 1212 002e 3A       		.uleb128 0x3a
 1213 002f 0B       		.uleb128 0xb
 1214 0030 3B       		.uleb128 0x3b
 1215 0031 0B       		.uleb128 0xb
 1216 0032 49       		.uleb128 0x49
 1217 0033 13       		.uleb128 0x13
 1218 0034 00       		.byte	0
 1219 0035 00       		.byte	0
 1220 0036 05       		.uleb128 0x5
 1221 0037 13       		.uleb128 0x13
 1222 0038 01       		.byte	0x1
 1223 0039 03       		.uleb128 0x3
 1224 003a 0E       		.uleb128 0xe
 1225 003b 0B       		.uleb128 0xb
 1226 003c 0B       		.uleb128 0xb
 1227 003d 3A       		.uleb128 0x3a
 1228 003e 0B       		.uleb128 0xb
 1229 003f 3B       		.uleb128 0x3b
 1230 0040 0B       		.uleb128 0xb
 1231 0041 01       		.uleb128 0x1
 1232 0042 13       		.uleb128 0x13
 1233 0043 00       		.byte	0
 1234 0044 00       		.byte	0
 1235 0045 06       		.uleb128 0x6
 1236 0046 0D       		.uleb128 0xd
 1237 0047 00       		.byte	0
 1238 0048 03       		.uleb128 0x3
 1239 0049 0E       		.uleb128 0xe
 1240 004a 3A       		.uleb128 0x3a
 1241 004b 0B       		.uleb128 0xb
 1242 004c 3B       		.uleb128 0x3b
 1243 004d 0B       		.uleb128 0xb
 1244 004e 49       		.uleb128 0x49
 1245 004f 13       		.uleb128 0x13
ARM GAS  /tmp/ccx8r5N9.s 			page 23


 1246 0050 38       		.uleb128 0x38
 1247 0051 0B       		.uleb128 0xb
 1248 0052 00       		.byte	0
 1249 0053 00       		.byte	0
 1250 0054 07       		.uleb128 0x7
 1251 0055 0D       		.uleb128 0xd
 1252 0056 00       		.byte	0
 1253 0057 03       		.uleb128 0x3
 1254 0058 08       		.uleb128 0x8
 1255 0059 3A       		.uleb128 0x3a
 1256 005a 0B       		.uleb128 0xb
 1257 005b 3B       		.uleb128 0x3b
 1258 005c 0B       		.uleb128 0xb
 1259 005d 49       		.uleb128 0x49
 1260 005e 13       		.uleb128 0x13
 1261 005f 38       		.uleb128 0x38
 1262 0060 0B       		.uleb128 0xb
 1263 0061 00       		.byte	0
 1264 0062 00       		.byte	0
 1265 0063 08       		.uleb128 0x8
 1266 0064 13       		.uleb128 0x13
 1267 0065 01       		.byte	0x1
 1268 0066 0B       		.uleb128 0xb
 1269 0067 0B       		.uleb128 0xb
 1270 0068 3A       		.uleb128 0x3a
 1271 0069 0B       		.uleb128 0xb
 1272 006a 3B       		.uleb128 0x3b
 1273 006b 0B       		.uleb128 0xb
 1274 006c 01       		.uleb128 0x1
 1275 006d 13       		.uleb128 0x13
 1276 006e 00       		.byte	0
 1277 006f 00       		.byte	0
 1278 0070 09       		.uleb128 0x9
 1279 0071 0F       		.uleb128 0xf
 1280 0072 00       		.byte	0
 1281 0073 0B       		.uleb128 0xb
 1282 0074 0B       		.uleb128 0xb
 1283 0075 49       		.uleb128 0x49
 1284 0076 13       		.uleb128 0x13
 1285 0077 00       		.byte	0
 1286 0078 00       		.byte	0
 1287 0079 0A       		.uleb128 0xa
 1288 007a 0F       		.uleb128 0xf
 1289 007b 00       		.byte	0
 1290 007c 0B       		.uleb128 0xb
 1291 007d 0B       		.uleb128 0xb
 1292 007e 00       		.byte	0
 1293 007f 00       		.byte	0
 1294 0080 0B       		.uleb128 0xb
 1295 0081 13       		.uleb128 0x13
 1296 0082 01       		.byte	0x1
 1297 0083 03       		.uleb128 0x3
 1298 0084 0E       		.uleb128 0xe
 1299 0085 0B       		.uleb128 0xb
 1300 0086 0B       		.uleb128 0xb
 1301 0087 3A       		.uleb128 0x3a
 1302 0088 0B       		.uleb128 0xb
ARM GAS  /tmp/ccx8r5N9.s 			page 24


 1303 0089 3B       		.uleb128 0x3b
 1304 008a 05       		.uleb128 0x5
 1305 008b 01       		.uleb128 0x1
 1306 008c 13       		.uleb128 0x13
 1307 008d 00       		.byte	0
 1308 008e 00       		.byte	0
 1309 008f 0C       		.uleb128 0xc
 1310 0090 0D       		.uleb128 0xd
 1311 0091 00       		.byte	0
 1312 0092 03       		.uleb128 0x3
 1313 0093 08       		.uleb128 0x8
 1314 0094 3A       		.uleb128 0x3a
 1315 0095 0B       		.uleb128 0xb
 1316 0096 3B       		.uleb128 0x3b
 1317 0097 05       		.uleb128 0x5
 1318 0098 49       		.uleb128 0x49
 1319 0099 13       		.uleb128 0x13
 1320 009a 38       		.uleb128 0x38
 1321 009b 0B       		.uleb128 0xb
 1322 009c 00       		.byte	0
 1323 009d 00       		.byte	0
 1324 009e 0D       		.uleb128 0xd
 1325 009f 35       		.uleb128 0x35
 1326 00a0 00       		.byte	0
 1327 00a1 49       		.uleb128 0x49
 1328 00a2 13       		.uleb128 0x13
 1329 00a3 00       		.byte	0
 1330 00a4 00       		.byte	0
 1331 00a5 0E       		.uleb128 0xe
 1332 00a6 17       		.uleb128 0x17
 1333 00a7 01       		.byte	0x1
 1334 00a8 0B       		.uleb128 0xb
 1335 00a9 0B       		.uleb128 0xb
 1336 00aa 3A       		.uleb128 0x3a
 1337 00ab 0B       		.uleb128 0xb
 1338 00ac 3B       		.uleb128 0x3b
 1339 00ad 0B       		.uleb128 0xb
 1340 00ae 01       		.uleb128 0x1
 1341 00af 13       		.uleb128 0x13
 1342 00b0 00       		.byte	0
 1343 00b1 00       		.byte	0
 1344 00b2 0F       		.uleb128 0xf
 1345 00b3 0D       		.uleb128 0xd
 1346 00b4 00       		.byte	0
 1347 00b5 03       		.uleb128 0x3
 1348 00b6 0E       		.uleb128 0xe
 1349 00b7 3A       		.uleb128 0x3a
 1350 00b8 0B       		.uleb128 0xb
 1351 00b9 3B       		.uleb128 0x3b
 1352 00ba 0B       		.uleb128 0xb
 1353 00bb 49       		.uleb128 0x49
 1354 00bc 13       		.uleb128 0x13
 1355 00bd 00       		.byte	0
 1356 00be 00       		.byte	0
 1357 00bf 10       		.uleb128 0x10
 1358 00c0 26       		.uleb128 0x26
 1359 00c1 00       		.byte	0
ARM GAS  /tmp/ccx8r5N9.s 			page 25


 1360 00c2 49       		.uleb128 0x49
 1361 00c3 13       		.uleb128 0x13
 1362 00c4 00       		.byte	0
 1363 00c5 00       		.byte	0
 1364 00c6 11       		.uleb128 0x11
 1365 00c7 2E       		.uleb128 0x2e
 1366 00c8 01       		.byte	0x1
 1367 00c9 03       		.uleb128 0x3
 1368 00ca 0E       		.uleb128 0xe
 1369 00cb 3A       		.uleb128 0x3a
 1370 00cc 0B       		.uleb128 0xb
 1371 00cd 3B       		.uleb128 0x3b
 1372 00ce 0B       		.uleb128 0xb
 1373 00cf 27       		.uleb128 0x27
 1374 00d0 19       		.uleb128 0x19
 1375 00d1 20       		.uleb128 0x20
 1376 00d2 0B       		.uleb128 0xb
 1377 00d3 01       		.uleb128 0x1
 1378 00d4 13       		.uleb128 0x13
 1379 00d5 00       		.byte	0
 1380 00d6 00       		.byte	0
 1381 00d7 12       		.uleb128 0x12
 1382 00d8 05       		.uleb128 0x5
 1383 00d9 00       		.byte	0
 1384 00da 03       		.uleb128 0x3
 1385 00db 08       		.uleb128 0x8
 1386 00dc 3A       		.uleb128 0x3a
 1387 00dd 0B       		.uleb128 0xb
 1388 00de 3B       		.uleb128 0x3b
 1389 00df 0B       		.uleb128 0xb
 1390 00e0 49       		.uleb128 0x49
 1391 00e1 13       		.uleb128 0x13
 1392 00e2 00       		.byte	0
 1393 00e3 00       		.byte	0
 1394 00e4 13       		.uleb128 0x13
 1395 00e5 2E       		.uleb128 0x2e
 1396 00e6 01       		.byte	0x1
 1397 00e7 03       		.uleb128 0x3
 1398 00e8 0E       		.uleb128 0xe
 1399 00e9 3A       		.uleb128 0x3a
 1400 00ea 0B       		.uleb128 0xb
 1401 00eb 3B       		.uleb128 0x3b
 1402 00ec 0B       		.uleb128 0xb
 1403 00ed 27       		.uleb128 0x27
 1404 00ee 19       		.uleb128 0x19
 1405 00ef 49       		.uleb128 0x49
 1406 00f0 13       		.uleb128 0x13
 1407 00f1 20       		.uleb128 0x20
 1408 00f2 0B       		.uleb128 0xb
 1409 00f3 01       		.uleb128 0x1
 1410 00f4 13       		.uleb128 0x13
 1411 00f5 00       		.byte	0
 1412 00f6 00       		.byte	0
 1413 00f7 14       		.uleb128 0x14
 1414 00f8 34       		.uleb128 0x34
 1415 00f9 00       		.byte	0
 1416 00fa 03       		.uleb128 0x3
ARM GAS  /tmp/ccx8r5N9.s 			page 26


 1417 00fb 08       		.uleb128 0x8
 1418 00fc 3A       		.uleb128 0x3a
 1419 00fd 0B       		.uleb128 0xb
 1420 00fe 3B       		.uleb128 0x3b
 1421 00ff 0B       		.uleb128 0xb
 1422 0100 49       		.uleb128 0x49
 1423 0101 13       		.uleb128 0x13
 1424 0102 00       		.byte	0
 1425 0103 00       		.byte	0
 1426 0104 15       		.uleb128 0x15
 1427 0105 2E       		.uleb128 0x2e
 1428 0106 01       		.byte	0x1
 1429 0107 3F       		.uleb128 0x3f
 1430 0108 19       		.uleb128 0x19
 1431 0109 03       		.uleb128 0x3
 1432 010a 0E       		.uleb128 0xe
 1433 010b 3A       		.uleb128 0x3a
 1434 010c 0B       		.uleb128 0xb
 1435 010d 3B       		.uleb128 0x3b
 1436 010e 0B       		.uleb128 0xb
 1437 010f 27       		.uleb128 0x27
 1438 0110 19       		.uleb128 0x19
 1439 0111 49       		.uleb128 0x49
 1440 0112 13       		.uleb128 0x13
 1441 0113 11       		.uleb128 0x11
 1442 0114 01       		.uleb128 0x1
 1443 0115 12       		.uleb128 0x12
 1444 0116 06       		.uleb128 0x6
 1445 0117 40       		.uleb128 0x40
 1446 0118 18       		.uleb128 0x18
 1447 0119 9742     		.uleb128 0x2117
 1448 011b 19       		.uleb128 0x19
 1449 011c 01       		.uleb128 0x1
 1450 011d 13       		.uleb128 0x13
 1451 011e 00       		.byte	0
 1452 011f 00       		.byte	0
 1453 0120 16       		.uleb128 0x16
 1454 0121 05       		.uleb128 0x5
 1455 0122 00       		.byte	0
 1456 0123 03       		.uleb128 0x3
 1457 0124 08       		.uleb128 0x8
 1458 0125 3A       		.uleb128 0x3a
 1459 0126 0B       		.uleb128 0xb
 1460 0127 3B       		.uleb128 0x3b
 1461 0128 0B       		.uleb128 0xb
 1462 0129 49       		.uleb128 0x49
 1463 012a 13       		.uleb128 0x13
 1464 012b 02       		.uleb128 0x2
 1465 012c 17       		.uleb128 0x17
 1466 012d 00       		.byte	0
 1467 012e 00       		.byte	0
 1468 012f 17       		.uleb128 0x17
 1469 0130 34       		.uleb128 0x34
 1470 0131 00       		.byte	0
 1471 0132 03       		.uleb128 0x3
 1472 0133 08       		.uleb128 0x8
 1473 0134 3A       		.uleb128 0x3a
ARM GAS  /tmp/ccx8r5N9.s 			page 27


 1474 0135 0B       		.uleb128 0xb
 1475 0136 3B       		.uleb128 0x3b
 1476 0137 0B       		.uleb128 0xb
 1477 0138 49       		.uleb128 0x49
 1478 0139 13       		.uleb128 0x13
 1479 013a 02       		.uleb128 0x2
 1480 013b 17       		.uleb128 0x17
 1481 013c 00       		.byte	0
 1482 013d 00       		.byte	0
 1483 013e 18       		.uleb128 0x18
 1484 013f 0B       		.uleb128 0xb
 1485 0140 01       		.byte	0x1
 1486 0141 11       		.uleb128 0x11
 1487 0142 01       		.uleb128 0x1
 1488 0143 12       		.uleb128 0x12
 1489 0144 06       		.uleb128 0x6
 1490 0145 01       		.uleb128 0x1
 1491 0146 13       		.uleb128 0x13
 1492 0147 00       		.byte	0
 1493 0148 00       		.byte	0
 1494 0149 19       		.uleb128 0x19
 1495 014a 34       		.uleb128 0x34
 1496 014b 00       		.byte	0
 1497 014c 03       		.uleb128 0x3
 1498 014d 08       		.uleb128 0x8
 1499 014e 3A       		.uleb128 0x3a
 1500 014f 0B       		.uleb128 0xb
 1501 0150 3B       		.uleb128 0x3b
 1502 0151 0B       		.uleb128 0xb
 1503 0152 49       		.uleb128 0x49
 1504 0153 13       		.uleb128 0x13
 1505 0154 02       		.uleb128 0x2
 1506 0155 18       		.uleb128 0x18
 1507 0156 00       		.byte	0
 1508 0157 00       		.byte	0
 1509 0158 1A       		.uleb128 0x1a
 1510 0159 1D       		.uleb128 0x1d
 1511 015a 01       		.byte	0x1
 1512 015b 31       		.uleb128 0x31
 1513 015c 13       		.uleb128 0x13
 1514 015d 52       		.uleb128 0x52
 1515 015e 01       		.uleb128 0x1
 1516 015f 55       		.uleb128 0x55
 1517 0160 17       		.uleb128 0x17
 1518 0161 58       		.uleb128 0x58
 1519 0162 0B       		.uleb128 0xb
 1520 0163 59       		.uleb128 0x59
 1521 0164 0B       		.uleb128 0xb
 1522 0165 01       		.uleb128 0x1
 1523 0166 13       		.uleb128 0x13
 1524 0167 00       		.byte	0
 1525 0168 00       		.byte	0
 1526 0169 1B       		.uleb128 0x1b
 1527 016a 05       		.uleb128 0x5
 1528 016b 00       		.byte	0
 1529 016c 31       		.uleb128 0x31
 1530 016d 13       		.uleb128 0x13
ARM GAS  /tmp/ccx8r5N9.s 			page 28


 1531 016e 02       		.uleb128 0x2
 1532 016f 17       		.uleb128 0x17
 1533 0170 00       		.byte	0
 1534 0171 00       		.byte	0
 1535 0172 1C       		.uleb128 0x1c
 1536 0173 898201   		.uleb128 0x4109
 1537 0176 00       		.byte	0
 1538 0177 11       		.uleb128 0x11
 1539 0178 01       		.uleb128 0x1
 1540 0179 31       		.uleb128 0x31
 1541 017a 13       		.uleb128 0x13
 1542 017b 00       		.byte	0
 1543 017c 00       		.byte	0
 1544 017d 1D       		.uleb128 0x1d
 1545 017e 898201   		.uleb128 0x4109
 1546 0181 01       		.byte	0x1
 1547 0182 11       		.uleb128 0x11
 1548 0183 01       		.uleb128 0x1
 1549 0184 31       		.uleb128 0x31
 1550 0185 13       		.uleb128 0x13
 1551 0186 01       		.uleb128 0x1
 1552 0187 13       		.uleb128 0x13
 1553 0188 00       		.byte	0
 1554 0189 00       		.byte	0
 1555 018a 1E       		.uleb128 0x1e
 1556 018b 8A8201   		.uleb128 0x410a
 1557 018e 00       		.byte	0
 1558 018f 02       		.uleb128 0x2
 1559 0190 18       		.uleb128 0x18
 1560 0191 9142     		.uleb128 0x2111
 1561 0193 18       		.uleb128 0x18
 1562 0194 00       		.byte	0
 1563 0195 00       		.byte	0
 1564 0196 1F       		.uleb128 0x1f
 1565 0197 898201   		.uleb128 0x4109
 1566 019a 01       		.byte	0x1
 1567 019b 11       		.uleb128 0x11
 1568 019c 01       		.uleb128 0x1
 1569 019d 31       		.uleb128 0x31
 1570 019e 13       		.uleb128 0x13
 1571 019f 00       		.byte	0
 1572 01a0 00       		.byte	0
 1573 01a1 20       		.uleb128 0x20
 1574 01a2 0B       		.uleb128 0xb
 1575 01a3 01       		.byte	0x1
 1576 01a4 55       		.uleb128 0x55
 1577 01a5 17       		.uleb128 0x17
 1578 01a6 00       		.byte	0
 1579 01a7 00       		.byte	0
 1580 01a8 21       		.uleb128 0x21
 1581 01a9 34       		.uleb128 0x34
 1582 01aa 00       		.byte	0
 1583 01ab 31       		.uleb128 0x31
 1584 01ac 13       		.uleb128 0x13
 1585 01ad 02       		.uleb128 0x2
 1586 01ae 17       		.uleb128 0x17
 1587 01af 00       		.byte	0
ARM GAS  /tmp/ccx8r5N9.s 			page 29


 1588 01b0 00       		.byte	0
 1589 01b1 22       		.uleb128 0x22
 1590 01b2 2E       		.uleb128 0x2e
 1591 01b3 01       		.byte	0x1
 1592 01b4 3F       		.uleb128 0x3f
 1593 01b5 19       		.uleb128 0x19
 1594 01b6 03       		.uleb128 0x3
 1595 01b7 0E       		.uleb128 0xe
 1596 01b8 3A       		.uleb128 0x3a
 1597 01b9 0B       		.uleb128 0xb
 1598 01ba 3B       		.uleb128 0x3b
 1599 01bb 0B       		.uleb128 0xb
 1600 01bc 27       		.uleb128 0x27
 1601 01bd 19       		.uleb128 0x19
 1602 01be 11       		.uleb128 0x11
 1603 01bf 01       		.uleb128 0x1
 1604 01c0 12       		.uleb128 0x12
 1605 01c1 06       		.uleb128 0x6
 1606 01c2 40       		.uleb128 0x40
 1607 01c3 18       		.uleb128 0x18
 1608 01c4 9742     		.uleb128 0x2117
 1609 01c6 19       		.uleb128 0x19
 1610 01c7 01       		.uleb128 0x1
 1611 01c8 13       		.uleb128 0x13
 1612 01c9 00       		.byte	0
 1613 01ca 00       		.byte	0
 1614 01cb 23       		.uleb128 0x23
 1615 01cc 34       		.uleb128 0x34
 1616 01cd 00       		.byte	0
 1617 01ce 03       		.uleb128 0x3
 1618 01cf 0E       		.uleb128 0xe
 1619 01d0 3A       		.uleb128 0x3a
 1620 01d1 0B       		.uleb128 0xb
 1621 01d2 3B       		.uleb128 0x3b
 1622 01d3 0B       		.uleb128 0xb
 1623 01d4 49       		.uleb128 0x49
 1624 01d5 13       		.uleb128 0x13
 1625 01d6 3F       		.uleb128 0x3f
 1626 01d7 19       		.uleb128 0x19
 1627 01d8 3C       		.uleb128 0x3c
 1628 01d9 19       		.uleb128 0x19
 1629 01da 00       		.byte	0
 1630 01db 00       		.byte	0
 1631 01dc 24       		.uleb128 0x24
 1632 01dd 2E       		.uleb128 0x2e
 1633 01de 00       		.byte	0
 1634 01df 3F       		.uleb128 0x3f
 1635 01e0 19       		.uleb128 0x19
 1636 01e1 03       		.uleb128 0x3
 1637 01e2 0E       		.uleb128 0xe
 1638 01e3 3A       		.uleb128 0x3a
 1639 01e4 0B       		.uleb128 0xb
 1640 01e5 3B       		.uleb128 0x3b
 1641 01e6 0B       		.uleb128 0xb
 1642 01e7 27       		.uleb128 0x27
 1643 01e8 19       		.uleb128 0x19
 1644 01e9 3C       		.uleb128 0x3c
ARM GAS  /tmp/ccx8r5N9.s 			page 30


 1645 01ea 19       		.uleb128 0x19
 1646 01eb 00       		.byte	0
 1647 01ec 00       		.byte	0
 1648 01ed 25       		.uleb128 0x25
 1649 01ee 2E       		.uleb128 0x2e
 1650 01ef 01       		.byte	0x1
 1651 01f0 3F       		.uleb128 0x3f
 1652 01f1 19       		.uleb128 0x19
 1653 01f2 03       		.uleb128 0x3
 1654 01f3 0E       		.uleb128 0xe
 1655 01f4 3A       		.uleb128 0x3a
 1656 01f5 0B       		.uleb128 0xb
 1657 01f6 3B       		.uleb128 0x3b
 1658 01f7 0B       		.uleb128 0xb
 1659 01f8 27       		.uleb128 0x27
 1660 01f9 19       		.uleb128 0x19
 1661 01fa 3C       		.uleb128 0x3c
 1662 01fb 19       		.uleb128 0x19
 1663 01fc 01       		.uleb128 0x1
 1664 01fd 13       		.uleb128 0x13
 1665 01fe 00       		.byte	0
 1666 01ff 00       		.byte	0
 1667 0200 26       		.uleb128 0x26
 1668 0201 05       		.uleb128 0x5
 1669 0202 00       		.byte	0
 1670 0203 49       		.uleb128 0x49
 1671 0204 13       		.uleb128 0x13
 1672 0205 00       		.byte	0
 1673 0206 00       		.byte	0
 1674 0207 27       		.uleb128 0x27
 1675 0208 2E       		.uleb128 0x2e
 1676 0209 01       		.byte	0x1
 1677 020a 3F       		.uleb128 0x3f
 1678 020b 19       		.uleb128 0x19
 1679 020c 03       		.uleb128 0x3
 1680 020d 0E       		.uleb128 0xe
 1681 020e 3A       		.uleb128 0x3a
 1682 020f 0B       		.uleb128 0xb
 1683 0210 3B       		.uleb128 0x3b
 1684 0211 0B       		.uleb128 0xb
 1685 0212 27       		.uleb128 0x27
 1686 0213 19       		.uleb128 0x19
 1687 0214 49       		.uleb128 0x49
 1688 0215 13       		.uleb128 0x13
 1689 0216 3C       		.uleb128 0x3c
 1690 0217 19       		.uleb128 0x19
 1691 0218 01       		.uleb128 0x1
 1692 0219 13       		.uleb128 0x13
 1693 021a 00       		.byte	0
 1694 021b 00       		.byte	0
 1695 021c 28       		.uleb128 0x28
 1696 021d 2E       		.uleb128 0x2e
 1697 021e 01       		.byte	0x1
 1698 021f 3F       		.uleb128 0x3f
 1699 0220 19       		.uleb128 0x19
 1700 0221 03       		.uleb128 0x3
 1701 0222 0E       		.uleb128 0xe
ARM GAS  /tmp/ccx8r5N9.s 			page 31


 1702 0223 3A       		.uleb128 0x3a
 1703 0224 0B       		.uleb128 0xb
 1704 0225 3B       		.uleb128 0x3b
 1705 0226 0B       		.uleb128 0xb
 1706 0227 27       		.uleb128 0x27
 1707 0228 19       		.uleb128 0x19
 1708 0229 3C       		.uleb128 0x3c
 1709 022a 19       		.uleb128 0x19
 1710 022b 00       		.byte	0
 1711 022c 00       		.byte	0
 1712 022d 00       		.byte	0
 1713              		.section	.debug_loc,"",%progbits
 1714              	.Ldebug_loc0:
 1715              	.LLST0:
 1716 0000 00000000 		.4byte	.LVL0
 1717 0004 0C000000 		.4byte	.LVL2
 1718 0008 0100     		.2byte	0x1
 1719 000a 50       		.byte	0x50
 1720 000b 0C000000 		.4byte	.LVL2
 1721 000f 4E000000 		.4byte	.LVL11
 1722 0013 0100     		.2byte	0x1
 1723 0015 55       		.byte	0x55
 1724 0016 4E000000 		.4byte	.LVL11
 1725 001a 50000000 		.4byte	.LVL12
 1726 001e 0100     		.2byte	0x1
 1727 0020 50       		.byte	0x50
 1728 0021 50000000 		.4byte	.LVL12
 1729 0025 60000000 		.4byte	.LFE7
 1730 0029 0100     		.2byte	0x1
 1731 002b 55       		.byte	0x55
 1732 002c 00000000 		.4byte	0
 1733 0030 00000000 		.4byte	0
 1734              	.LLST1:
 1735 0034 00000000 		.4byte	.LVL0
 1736 0038 0C000000 		.4byte	.LVL2
 1737 003c 0100     		.2byte	0x1
 1738 003e 51       		.byte	0x51
 1739 003f 0C000000 		.4byte	.LVL2
 1740 0043 38000000 		.4byte	.LVL7
 1741 0047 0100     		.2byte	0x1
 1742 0049 56       		.byte	0x56
 1743 004a 38000000 		.4byte	.LVL7
 1744 004e 46000000 		.4byte	.LVL9
 1745 0052 0100     		.2byte	0x1
 1746 0054 54       		.byte	0x54
 1747 0055 46000000 		.4byte	.LVL9
 1748 0059 4E000000 		.4byte	.LVL11
 1749 005d 0100     		.2byte	0x1
 1750 005f 56       		.byte	0x56
 1751 0060 4E000000 		.4byte	.LVL11
 1752 0064 53000000 		.4byte	.LVL13-1
 1753 0068 0100     		.2byte	0x1
 1754 006a 51       		.byte	0x51
 1755 006b 53000000 		.4byte	.LVL13-1
 1756 006f 60000000 		.4byte	.LFE7
 1757 0073 0100     		.2byte	0x1
 1758 0075 56       		.byte	0x56
ARM GAS  /tmp/ccx8r5N9.s 			page 32


 1759 0076 00000000 		.4byte	0
 1760 007a 00000000 		.4byte	0
 1761              	.LLST2:
 1762 007e 0A000000 		.4byte	.LVL1
 1763 0082 38000000 		.4byte	.LVL7
 1764 0086 0100     		.2byte	0x1
 1765 0088 54       		.byte	0x54
 1766 0089 46000000 		.4byte	.LVL9
 1767 008d 60000000 		.4byte	.LFE7
 1768 0091 0100     		.2byte	0x1
 1769 0093 54       		.byte	0x54
 1770 0094 00000000 		.4byte	0
 1771 0098 00000000 		.4byte	0
 1772              	.LLST3:
 1773 009c 20000000 		.4byte	.LVL4
 1774 00a0 30000000 		.4byte	.LVL5
 1775 00a4 0100     		.2byte	0x1
 1776 00a6 52       		.byte	0x52
 1777 00a7 30000000 		.4byte	.LVL5
 1778 00ab 46000000 		.4byte	.LVL9
 1779 00af 0300     		.2byte	0x3
 1780 00b1 75       		.byte	0x75
 1781 00b2 30       		.sleb128 48
 1782 00b3 9F       		.byte	0x9f
 1783 00b4 46000000 		.4byte	.LVL9
 1784 00b8 4B000000 		.4byte	.LVL10-1
 1785 00bc 0100     		.2byte	0x1
 1786 00be 52       		.byte	0x52
 1787 00bf 4B000000 		.4byte	.LVL10-1
 1788 00c3 4E000000 		.4byte	.LVL11
 1789 00c7 0300     		.2byte	0x3
 1790 00c9 75       		.byte	0x75
 1791 00ca 30       		.sleb128 48
 1792 00cb 9F       		.byte	0x9f
 1793 00cc 00000000 		.4byte	0
 1794 00d0 00000000 		.4byte	0
 1795              	.LLST4:
 1796 00d4 20000000 		.4byte	.LVL4
 1797 00d8 38000000 		.4byte	.LVL7
 1798 00dc 0100     		.2byte	0x1
 1799 00de 54       		.byte	0x54
 1800 00df 46000000 		.4byte	.LVL9
 1801 00e3 4E000000 		.4byte	.LVL11
 1802 00e7 0100     		.2byte	0x1
 1803 00e9 54       		.byte	0x54
 1804 00ea 00000000 		.4byte	0
 1805 00ee 00000000 		.4byte	0
 1806              	.LLST5:
 1807 00f2 1A000000 		.4byte	.LVL15
 1808 00f6 29000000 		.4byte	.LVL16-1
 1809 00fa 0100     		.2byte	0x1
 1810 00fc 53       		.byte	0x53
 1811 00fd 00000000 		.4byte	0
 1812 0101 00000000 		.4byte	0
 1813              	.LLST6:
 1814 0105 1A000000 		.4byte	.LVL15
 1815 0109 34000000 		.4byte	.LVL17
ARM GAS  /tmp/ccx8r5N9.s 			page 33


 1816 010d 0100     		.2byte	0x1
 1817 010f 54       		.byte	0x54
 1818 0110 00000000 		.4byte	0
 1819 0114 00000000 		.4byte	0
 1820              	.LLST7:
 1821 0118 00000000 		.4byte	.LVL19
 1822 011c 0F000000 		.4byte	.LVL20-1
 1823 0120 0100     		.2byte	0x1
 1824 0122 50       		.byte	0x50
 1825 0123 0F000000 		.4byte	.LVL20-1
 1826 0127 32000000 		.4byte	.LVL24
 1827 012b 0100     		.2byte	0x1
 1828 012d 54       		.byte	0x54
 1829 012e 32000000 		.4byte	.LVL24
 1830 0132 38000000 		.4byte	.LFE9
 1831 0136 0400     		.2byte	0x4
 1832 0138 F3       		.byte	0xf3
 1833 0139 01       		.uleb128 0x1
 1834 013a 50       		.byte	0x50
 1835 013b 9F       		.byte	0x9f
 1836 013c 00000000 		.4byte	0
 1837 0140 00000000 		.4byte	0
 1838              	.LLST8:
 1839 0144 00000000 		.4byte	.LVL19
 1840 0148 0F000000 		.4byte	.LVL20-1
 1841 014c 0100     		.2byte	0x1
 1842 014e 51       		.byte	0x51
 1843 014f 0F000000 		.4byte	.LVL20-1
 1844 0153 32000000 		.4byte	.LVL24
 1845 0157 0100     		.2byte	0x1
 1846 0159 55       		.byte	0x55
 1847 015a 32000000 		.4byte	.LVL24
 1848 015e 38000000 		.4byte	.LFE9
 1849 0162 0400     		.2byte	0x4
 1850 0164 F3       		.byte	0xf3
 1851 0165 01       		.uleb128 0x1
 1852 0166 51       		.byte	0x51
 1853 0167 9F       		.byte	0x9f
 1854 0168 00000000 		.4byte	0
 1855 016c 00000000 		.4byte	0
 1856              		.section	.debug_aranges,"",%progbits
 1857 0000 2C000000 		.4byte	0x2c
 1858 0004 0200     		.2byte	0x2
 1859 0006 00000000 		.4byte	.Ldebug_info0
 1860 000a 04       		.byte	0x4
 1861 000b 00       		.byte	0
 1862 000c 0000     		.2byte	0
 1863 000e 0000     		.2byte	0
 1864 0010 00000000 		.4byte	.LFB7
 1865 0014 60000000 		.4byte	.LFE7-.LFB7
 1866 0018 00000000 		.4byte	.LFB8
 1867 001c 48000000 		.4byte	.LFE8-.LFB8
 1868 0020 00000000 		.4byte	.LFB9
 1869 0024 38000000 		.4byte	.LFE9-.LFB9
 1870 0028 00000000 		.4byte	0
 1871 002c 00000000 		.4byte	0
 1872              		.section	.debug_ranges,"",%progbits
ARM GAS  /tmp/ccx8r5N9.s 			page 34


 1873              	.Ldebug_ranges0:
 1874 0000 20000000 		.4byte	.LBB11
 1875 0004 22000000 		.4byte	.LBE11
 1876 0008 26000000 		.4byte	.LBB14
 1877 000c 2E000000 		.4byte	.LBE14
 1878 0010 00000000 		.4byte	0
 1879 0014 00000000 		.4byte	0
 1880 0018 1A000000 		.4byte	.LBB17
 1881 001c 1E000000 		.4byte	.LBE17
 1882 0020 20000000 		.4byte	.LBB20
 1883 0024 22000000 		.4byte	.LBE20
 1884 0028 00000000 		.4byte	0
 1885 002c 00000000 		.4byte	0
 1886 0030 00000000 		.4byte	.LFB7
 1887 0034 60000000 		.4byte	.LFE7
 1888 0038 00000000 		.4byte	.LFB8
 1889 003c 48000000 		.4byte	.LFE8
 1890 0040 00000000 		.4byte	.LFB9
 1891 0044 38000000 		.4byte	.LFE9
 1892 0048 00000000 		.4byte	0
 1893 004c 00000000 		.4byte	0
 1894              		.section	.debug_line,"",%progbits
 1895              	.Ldebug_line0:
 1896 0000 AF010000 		.section	.debug_str,"MS",%progbits,1
 1896      02002601 
 1896      00000201 
 1896      FB0E0D00 
 1896      01010101 
 1897              	.LASF38:
 1898 0000 705F6D73 		.ascii	"p_msg\000"
 1898      6700
 1899              	.LASF75:
 1900 0006 71756575 		.ascii	"queue_insert\000"
 1900      655F696E 
 1900      73657274 
 1900      00
 1901              	.LASF71:
 1902 0013 63684462 		.ascii	"chDbgPanic\000"
 1902      6750616E 
 1902      696300
 1903              	.LASF61:
 1904 001e 7264796D 		.ascii	"rdymsg\000"
 1904      736700
 1905              	.LASF11:
 1906 0025 75696E74 		.ascii	"uint64_t\000"
 1906      36345F74 
 1906      00
 1907              	.LASF12:
 1908 002e 6C6F6E67 		.ascii	"long long unsigned int\000"
 1908      206C6F6E 
 1908      6720756E 
 1908      7369676E 
 1908      65642069 
 1909              	.LASF62:
 1910 0045 65786974 		.ascii	"exitcode\000"
 1910      636F6465 
 1910      00
ARM GAS  /tmp/ccx8r5N9.s 			page 35


 1911              	.LASF25:
 1912 004e 705F7072 		.ascii	"p_prio\000"
 1912      696F00
 1913              	.LASF10:
 1914 0055 6C6F6E67 		.ascii	"long long int\000"
 1914      206C6F6E 
 1914      6720696E 
 1914      7400
 1915              	.LASF1:
 1916 0063 7369676E 		.ascii	"signed char\000"
 1916      65642063 
 1916      68617200 
 1917              	.LASF42:
 1918 006f 705F6D70 		.ascii	"p_mpool\000"
 1918      6F6F6C00 
 1919              	.LASF58:
 1920 0077 6D5F7175 		.ascii	"m_queue\000"
 1920      65756500 
 1921              	.LASF17:
 1922 007f 74736C69 		.ascii	"tslices_t\000"
 1922      6365735F 
 1922      7400
 1923              	.LASF7:
 1924 0089 6C6F6E67 		.ascii	"long int\000"
 1924      20696E74 
 1924      00
 1925              	.LASF73:
 1926 0092 2E2E2F2E 		.ascii	"../../../os/kernel/src/chmsg.c\000"
 1926      2E2F2E2E 
 1926      2F6F732F 
 1926      6B65726E 
 1926      656C2F73 
 1927              	.LASF66:
 1928 00b1 63684D73 		.ascii	"chMsgSend\000"
 1928      6753656E 
 1928      6400
 1929              	.LASF15:
 1930 00bb 74737461 		.ascii	"tstate_t\000"
 1930      74655F74 
 1930      00
 1931              	.LASF27:
 1932 00c4 705F6E65 		.ascii	"p_newer\000"
 1932      77657200 
 1933              	.LASF53:
 1934 00cc 725F6E65 		.ascii	"r_newer\000"
 1934      77657200 
 1935              	.LASF45:
 1936 00d4 72656761 		.ascii	"regarm_t\000"
 1936      726D5F74 
 1936      00
 1937              	.LASF30:
 1938 00dd 705F7374 		.ascii	"p_stklimit\000"
 1938      6B6C696D 
 1938      697400
 1939              	.LASF0:
 1940 00e8 756E7369 		.ascii	"unsigned int\000"
 1940      676E6564 
ARM GAS  /tmp/ccx8r5N9.s 			page 36


 1940      20696E74 
 1940      00
 1941              	.LASF9:
 1942 00f5 6C6F6E67 		.ascii	"long unsigned int\000"
 1942      20756E73 
 1942      69676E65 
 1942      6420696E 
 1942      7400
 1943              	.LASF48:
 1944 0107 636F6E74 		.ascii	"context\000"
 1944      65787400 
 1945              	.LASF4:
 1946 010f 73686F72 		.ascii	"short unsigned int\000"
 1946      7420756E 
 1946      7369676E 
 1946      65642069 
 1946      6E7400
 1947              	.LASF19:
 1948 0122 6D73675F 		.ascii	"msg_t\000"
 1948      7400
 1949              	.LASF14:
 1950 0128 746D6F64 		.ascii	"tmode_t\000"
 1950      655F7400 
 1951              	.LASF44:
 1952 0130 54687265 		.ascii	"ThreadsList\000"
 1952      6164734C 
 1952      69737400 
 1953              	.LASF20:
 1954 013c 6576656E 		.ascii	"eventmask_t\000"
 1954      746D6173 
 1954      6B5F7400 
 1955              	.LASF57:
 1956 0148 4D757465 		.ascii	"Mutex\000"
 1956      7800
 1957              	.LASF46:
 1958 014e 73746B61 		.ascii	"stkalign_t\000"
 1958      6C69676E 
 1958      5F7400
 1959              	.LASF49:
 1960 0159 73697A65 		.ascii	"sizetype\000"
 1960      74797065 
 1960      00
 1961              	.LASF68:
 1962 0162 6462675F 		.ascii	"dbg_check_lock\000"
 1962      63686563 
 1962      6B5F6C6F 
 1962      636B00
 1963              	.LASF28:
 1964 0171 705F6F6C 		.ascii	"p_older\000"
 1964      64657200 
 1965              	.LASF52:
 1966 0179 725F6374 		.ascii	"r_ctx\000"
 1966      7800
 1967              	.LASF43:
 1968 017f 54687265 		.ascii	"ThreadsQueue\000"
 1968      61647351 
 1968      75657565 
ARM GAS  /tmp/ccx8r5N9.s 			page 37


 1968      00
 1969              	.LASF55:
 1970 018c 725F6375 		.ascii	"r_current\000"
 1970      7272656E 
 1970      7400
 1971              	.LASF54:
 1972 0196 725F6F6C 		.ascii	"r_older\000"
 1972      64657200 
 1973              	.LASF69:
 1974 019e 6462675F 		.ascii	"dbg_check_unlock\000"
 1974      63686563 
 1974      6B5F756E 
 1974      6C6F636B 
 1974      00
 1975              	.LASF16:
 1976 01af 74726566 		.ascii	"trefs_t\000"
 1976      735F7400 
 1977              	.LASF24:
 1978 01b7 705F7072 		.ascii	"p_prev\000"
 1978      657600
 1979              	.LASF18:
 1980 01be 74707269 		.ascii	"tprio_t\000"
 1980      6F5F7400 
 1981              	.LASF72:
 1982 01c6 474E5520 		.ascii	"GNU C 4.8.3 20131129 (release) [ARM/embedded-4_8-br"
 1982      4320342E 
 1982      382E3320 
 1982      32303133 
 1982      31313239 
 1983 01f9 616E6368 		.ascii	"anch revision 205641] -mcpu=cortex-m4 -mno-thumb-in"
 1983      20726576 
 1983      6973696F 
 1983      6E203230 
 1983      35363431 
 1984 022c 74657277 		.ascii	"terwork -mthumb -ggdb -O2 -fomit-frame-pointer -fal"
 1984      6F726B20 
 1984      2D6D7468 
 1984      756D6220 
 1984      2D676764 
 1985 025f 69676E2D 		.ascii	"ign-functions=16 -ffunction-sections -fdata-section"
 1985      66756E63 
 1985      74696F6E 
 1985      733D3136 
 1985      202D6666 
 1986 0292 73202D66 		.ascii	"s -fno-common\000"
 1986      6E6F2D63 
 1986      6F6D6D6F 
 1986      6E00
 1987              	.LASF13:
 1988 02a0 5F426F6F 		.ascii	"_Bool\000"
 1988      6C00
 1989              	.LASF6:
 1990 02a6 696E7433 		.ascii	"int32_t\000"
 1990      325F7400 
 1991              	.LASF2:
 1992 02ae 756E7369 		.ascii	"unsigned char\000"
 1992      676E6564 
ARM GAS  /tmp/ccx8r5N9.s 			page 38


 1992      20636861 
 1992      7200
 1993              	.LASF40:
 1994 02bc 705F6D74 		.ascii	"p_mtxlist\000"
 1994      786C6973 
 1994      7400
 1995              	.LASF3:
 1996 02c6 73686F72 		.ascii	"short int\000"
 1996      7420696E 
 1996      7400
 1997              	.LASF31:
 1998 02d0 705F7374 		.ascii	"p_state\000"
 1998      61746500 
 1999              	.LASF34:
 2000 02d8 705F7072 		.ascii	"p_preempt\000"
 2000      65656D70 
 2000      7400
 2001              	.LASF51:
 2002 02e2 725F7072 		.ascii	"r_prio\000"
 2002      696F00
 2003              	.LASF64:
 2004 02e9 65776D61 		.ascii	"ewmask\000"
 2004      736B00
 2005              	.LASF23:
 2006 02f0 705F6E65 		.ascii	"p_next\000"
 2006      787400
 2007              	.LASF32:
 2008 02f7 705F666C 		.ascii	"p_flags\000"
 2008      61677300 
 2009              	.LASF22:
 2010 02ff 54687265 		.ascii	"Thread\000"
 2010      616400
 2011              	.LASF77:
 2012 0306 63684D73 		.ascii	"chMsgRelease\000"
 2012      6752656C 
 2012      65617365 
 2012      00
 2013              	.LASF70:
 2014 0313 63685363 		.ascii	"chSchGoSleepS\000"
 2014      68476F53 
 2014      6C656570 
 2014      5300
 2015              	.LASF39:
 2016 0321 705F6570 		.ascii	"p_epending\000"
 2016      656E6469 
 2016      6E6700
 2017              	.LASF8:
 2018 032c 75696E74 		.ascii	"uint32_t\000"
 2018      33325F74 
 2018      00
 2019              	.LASF50:
 2020 0335 725F7175 		.ascii	"r_queue\000"
 2020      65756500 
 2021              	.LASF79:
 2022 033d 63685363 		.ascii	"chSchReadyI\000"
 2022      68526561 
 2022      64794900 
ARM GAS  /tmp/ccx8r5N9.s 			page 39


 2023              	.LASF65:
 2024 0349 63686172 		.ascii	"char\000"
 2024      00
 2025              	.LASF76:
 2026 034e 6669666F 		.ascii	"fifo_remove\000"
 2026      5F72656D 
 2026      6F766500 
 2027              	.LASF60:
 2028 035a 6D5F6E65 		.ascii	"m_next\000"
 2028      787400
 2029              	.LASF21:
 2030 0361 73797374 		.ascii	"systime_t\000"
 2030      696D655F 
 2030      7400
 2031              	.LASF41:
 2032 036b 705F7265 		.ascii	"p_realprio\000"
 2032      616C7072 
 2032      696F00
 2033              	.LASF35:
 2034 0376 705F7469 		.ascii	"p_time\000"
 2034      6D6500
 2035              	.LASF47:
 2036 037d 696E7463 		.ascii	"intctx\000"
 2036      747800
 2037              	.LASF37:
 2038 0384 705F6D73 		.ascii	"p_msgqueue\000"
 2038      67717565 
 2038      756500
 2039              	.LASF80:
 2040 038f 63685363 		.ascii	"chSchWakeupS\000"
 2040      6857616B 
 2040      65757053 
 2040      00
 2041              	.LASF67:
 2042 039c 63684D73 		.ascii	"chMsgWait\000"
 2042      67576169 
 2042      7400
 2043              	.LASF33:
 2044 03a6 705F7265 		.ascii	"p_refs\000"
 2044      667300
 2045              	.LASF56:
 2046 03ad 52656164 		.ascii	"ReadyList\000"
 2046      794C6973 
 2046      7400
 2047              	.LASF78:
 2048 03b7 726C6973 		.ascii	"rlist\000"
 2048      7400
 2049              	.LASF5:
 2050 03bd 75696E74 		.ascii	"uint8_t\000"
 2050      385F7400 
 2051              	.LASF63:
 2052 03c5 77746F62 		.ascii	"wtobjp\000"
 2052      6A7000
 2053              	.LASF29:
 2054 03cc 705F6E61 		.ascii	"p_name\000"
 2054      6D6500
 2055              	.LASF59:
ARM GAS  /tmp/ccx8r5N9.s 			page 40


 2056 03d3 6D5F6F77 		.ascii	"m_owner\000"
 2056      6E657200 
 2057              	.LASF26:
 2058 03db 705F6374 		.ascii	"p_ctx\000"
 2058      7800
 2059              	.LASF36:
 2060 03e1 705F7761 		.ascii	"p_waiting\000"
 2060      6974696E 
 2060      6700
 2061              	.LASF74:
 2062 03eb 2F776F72 		.ascii	"/works/Dropbox/workspace/project.git/ChibiOS-RT_1/t"
 2062      6B732F44 
 2062      726F7062 
 2062      6F782F77 
 2062      6F726B73 
 2063 041e 65737468 		.ascii	"esthal/STM32F4xx/DMA_STORM\000"
 2063      616C2F53 
 2063      544D3332 
 2063      46347878 
 2063      2F444D41 
 2064              		.ident	"GCC: (GNU Tools for ARM Embedded Processors) 4.8.3 20131129 (release) [ARM/embedded-4_8-br
ARM GAS  /tmp/ccx8r5N9.s 			page 41


DEFINED SYMBOLS
                            *ABS*:00000000 chmsg.c
     /tmp/ccx8r5N9.s:19     .text.chMsgSend:00000000 $t
     /tmp/ccx8r5N9.s:25     .text.chMsgSend:00000000 chMsgSend
     /tmp/ccx8r5N9.s:132    .text.chMsgSend:00000058 $d
     /tmp/ccx8r5N9.s:138    .text.chMsgWait:00000000 $t
     /tmp/ccx8r5N9.s:144    .text.chMsgWait:00000000 chMsgWait
     /tmp/ccx8r5N9.s:220    .text.chMsgWait:00000044 $d
     /tmp/ccx8r5N9.s:225    .text.chMsgRelease:00000000 $t
     /tmp/ccx8r5N9.s:231    .text.chMsgRelease:00000000 chMsgRelease
     /tmp/ccx8r5N9.s:285    .text.chMsgRelease:00000034 $d
     /tmp/ccx8r5N9.s:291    .rodata.str1.4:00000000 $d
                     .debug_frame:00000010 $d
     /tmp/ccx8r5N9.s:224    .text.chMsgWait:00000048 $t
     /tmp/ccx8r5N9.s:290    .text.chMsgRelease:00000038 $t

UNDEFINED SYMBOLS
dbg_check_lock
chSchGoSleepS
dbg_check_unlock
chSchReadyI
chDbgPanic
rlist
chSchWakeupS
