ARM GAS  /tmp/ccXVtwnO.s 			page 1


   1              		.syntax unified
   2              		.cpu cortex-m4
   3              		.fpu softvfp
   4              		.eabi_attribute 20, 1
   5              		.eabi_attribute 21, 1
   6              		.eabi_attribute 23, 3
   7              		.eabi_attribute 24, 1
   8              		.eabi_attribute 25, 1
   9              		.eabi_attribute 26, 1
  10              		.eabi_attribute 30, 2
  11              		.eabi_attribute 34, 1
  12              		.eabi_attribute 18, 4
  13              		.thumb
  14              		.file	"chmtx.c"
  15              		.text
  16              	.Ltext0:
  17              		.cfi_sections	.debug_frame
  18              		.section	.text.chMtxInit,"ax",%progbits
  19              		.align	2
  20              		.p2align 4,,15
  21              		.global	chMtxInit
  22              		.thumb
  23              		.thumb_func
  24              		.type	chMtxInit, %function
  25              	chMtxInit:
  26              	.LFB7:
  27              		.file 1 "../../../os/kernel/src/chmtx.c"
  28              		.loc 1 79 0
  29              		.cfi_startproc
  30              		@ args = 0, pretend = 0, frame = 0
  31              		@ frame_needed = 0, uses_anonymous_args = 0
  32              	.LVL0:
  33 0000 10B5     		push	{r4, lr}
  34              		.cfi_def_cfa_offset 8
  35              		.cfi_offset 4, -8
  36              		.cfi_offset 14, -4
  37              		.loc 1 81 0
  38 0002 0446     		mov	r4, r0
  39 0004 20B1     		cbz	r0, .L4
  40              	.LVL1:
  41              	.L2:
  42              		.loc 1 84 0
  43 0006 0023     		movs	r3, #0
  44              		.loc 1 83 0
  45 0008 6460     		str	r4, [r4, #4]
  46 000a 2460     		str	r4, [r4]
  47              		.loc 1 84 0
  48 000c A360     		str	r3, [r4, #8]
  49 000e 10BD     		pop	{r4, pc}
  50              	.LVL2:
  51              	.L4:
  52              		.loc 1 81 0 discriminator 1
  53 0010 0148     		ldr	r0, .L5
  54              	.LVL3:
  55 0012 FFF7FEFF 		bl	chDbgPanic
  56              	.LVL4:
  57 0016 F6E7     		b	.L2
ARM GAS  /tmp/ccXVtwnO.s 			page 2


  58              	.L6:
  59              		.align	2
  60              	.L5:
  61 0018 00000000 		.word	.LC0
  62              		.cfi_endproc
  63              	.LFE7:
  64              		.size	chMtxInit, .-chMtxInit
  65 001c AFF30080 		.section	.text.chMtxLockS,"ax",%progbits
  66              		.align	2
  67              		.p2align 4,,15
  68              		.global	chMtxLockS
  69              		.thumb
  70              		.thumb_func
  71              		.type	chMtxLockS, %function
  72              	chMtxLockS:
  73              	.LFB9:
  74              		.loc 1 114 0
  75              		.cfi_startproc
  76              		@ args = 0, pretend = 0, frame = 0
  77              		@ frame_needed = 0, uses_anonymous_args = 0
  78              	.LVL5:
  79              		.loc 1 115 0
  80 0000 3B4B     		ldr	r3, .L32
  81              		.loc 1 114 0
  82 0002 70B5     		push	{r4, r5, r6, lr}
  83              		.cfi_def_cfa_offset 16
  84              		.cfi_offset 4, -16
  85              		.cfi_offset 5, -12
  86              		.cfi_offset 6, -8
  87              		.cfi_offset 14, -4
  88              		.loc 1 114 0
  89 0004 0546     		mov	r5, r0
  90              		.loc 1 115 0
  91 0006 9C69     		ldr	r4, [r3, #24]
  92              	.LVL6:
  93              		.loc 1 117 0
  94 0008 FFF7FEFF 		bl	chDbgCheckClassS
  95              	.LVL7:
  96              		.loc 1 118 0
  97 000c 002D     		cmp	r5, #0
  98 000e 6BD0     		beq	.L30
  99              	.L8:
 100              		.loc 1 121 0
 101 0010 A868     		ldr	r0, [r5, #8]
 102 0012 0028     		cmp	r0, #0
 103 0014 36D0     		beq	.L9
 104              	.LVL8:
 105              	.LBB29:
 106              		.loc 1 128 0 discriminator 1
 107 0016 A268     		ldr	r2, [r4, #8]
 108 0018 8368     		ldr	r3, [r0, #8]
 109 001a 9342     		cmp	r3, r2
 110 001c 07D2     		bcs	.L11
 111              	.L20:
 112              		.loc 1 132 0
 113 001e 90F82030 		ldrb	r3, [r0, #32]	@ zero_extendqisi2
 114              		.loc 1 130 0
ARM GAS  /tmp/ccXVtwnO.s 			page 3


 115 0022 8260     		str	r2, [r0, #8]
 116              		.loc 1 132 0
 117 0024 042B     		cmp	r3, #4
 118 0026 46D0     		beq	.L12
 119 0028 052B     		cmp	r3, #5
 120 002a 30D0     		beq	.L13
 121 002c FBB1     		cbz	r3, .L31
 122              	.LVL9:
 123              	.L11:
 124              	.LBB30:
 125              	.LBB31:
 126              		.file 2 "../../../os/kernel/include/chinline.h"
 127              		.loc 2 36 0
 128 002e 2B46     		mov	r3, r5
 129 0030 03E0     		b	.L28
 130              	.LVL10:
 131              	.L24:
 132              		.loc 2 39 0
 133 0032 9968     		ldr	r1, [r3, #8]
 134 0034 A268     		ldr	r2, [r4, #8]
 135 0036 9142     		cmp	r1, r2
 136 0038 02D3     		bcc	.L27
 137              	.L28:
 138              		.loc 2 38 0
 139 003a 1B68     		ldr	r3, [r3]
 140              	.LVL11:
 141              		.loc 2 39 0
 142 003c 9D42     		cmp	r5, r3
 143 003e F8D1     		bne	.L24
 144              	.L27:
 145              		.loc 2 41 0
 146 0040 5A68     		ldr	r2, [r3, #4]
 147 0042 6260     		str	r2, [r4, #4]
 148              		.loc 2 40 0
 149 0044 2360     		str	r3, [r4]
 150              	.LBE31:
 151              	.LBE30:
 152              		.loc 1 168 0
 153 0046 0420     		movs	r0, #4
 154              	.LBB33:
 155              	.LBB32:
 156              		.loc 2 42 0
 157 0048 5C60     		str	r4, [r3, #4]
 158 004a 1460     		str	r4, [r2]
 159              	.LBE32:
 160              	.LBE33:
 161              		.loc 1 167 0
 162 004c A562     		str	r5, [r4, #40]
 163              		.loc 1 168 0
 164 004e FFF7FEFF 		bl	chSchGoSleepS
 165              	.LVL12:
 166              		.loc 1 171 0
 167 0052 AB68     		ldr	r3, [r5, #8]
 168 0054 A342     		cmp	r3, r4
 169 0056 02D0     		beq	.L26
 170              		.loc 1 171 0 is_stmt 0 discriminator 1
 171 0058 2648     		ldr	r0, .L32+4
ARM GAS  /tmp/ccXVtwnO.s 			page 4


 172 005a FFF7FEFF 		bl	chDbgPanic
 173              	.LVL13:
 174              	.L26:
 175              		.loc 1 172 0 is_stmt 1
 176 005e 236C     		ldr	r3, [r4, #64]
 177 0060 AB42     		cmp	r3, r5
 178 0062 13D0     		beq	.L7
 179              		.loc 1 172 0 is_stmt 0 discriminator 1
 180 0064 2448     		ldr	r0, .L32+8
 181              	.LBE29:
 182              		.loc 1 180 0 is_stmt 1 discriminator 1
 183 0066 BDE87040 		pop	{r4, r5, r6, lr}
 184              	.LVL14:
 185              	.LBB50:
 186              		.loc 1 172 0 discriminator 1
 187 006a FFF7FEBF 		b	chDbgPanic
 188              	.LVL15:
 189              	.L31:
 190              	.LBB34:
 191              	.LBB35:
 192              		.loc 2 68 0
 193 006e 90E80C00 		ldmia	r0, {r2, r3}
 194              	.LBE35:
 195              	.LBE34:
 196              		.loc 1 157 0
 197 0072 0121     		movs	r1, #1
 198 0074 80F82010 		strb	r1, [r0, #32]
 199              	.LVL16:
 200              	.LBB37:
 201              	.LBB36:
 202              		.loc 2 68 0
 203 0078 1A60     		str	r2, [r3]
 204              		.loc 2 69 0
 205 007a 0268     		ldr	r2, [r0]
 206 007c 5360     		str	r3, [r2, #4]
 207              	.LBE36:
 208              	.LBE37:
 209              		.loc 1 160 0
 210 007e FFF7FEFF 		bl	chSchReadyI
 211              	.LVL17:
 212              		.loc 1 161 0
 213 0082 D4E7     		b	.L11
 214              	.L9:
 215              	.LBE50:
 216              		.loc 1 177 0
 217 0084 236C     		ldr	r3, [r4, #64]
 218 0086 EB60     		str	r3, [r5, #12]
 219              		.loc 1 176 0
 220 0088 AC60     		str	r4, [r5, #8]
 221              		.loc 1 178 0
 222 008a 2564     		str	r5, [r4, #64]
 223              	.L7:
 224 008c 70BD     		pop	{r4, r5, r6, pc}
 225              	.LVL18:
 226              	.L13:
 227              	.LBB51:
 228              	.LBB38:
ARM GAS  /tmp/ccXVtwnO.s 			page 5


 229              	.LBB39:
 230              		.loc 2 68 0
 231 008e 90E80A00 		ldmia	r0, {r1, r3}
 232 0092 1960     		str	r1, [r3]
 233              	.LBE39:
 234              	.LBE38:
 235              		.loc 1 151 0
 236 0094 866A     		ldr	r6, [r0, #40]
 237              	.LVL19:
 238              	.LBB41:
 239              	.LBB40:
 240              		.loc 2 69 0
 241 0096 0168     		ldr	r1, [r0]
 242 0098 4B60     		str	r3, [r1, #4]
 243              	.LBE40:
 244              	.LBE41:
 245              	.LBB42:
 246              	.LBB43:
 247              		.loc 2 36 0
 248 009a 3346     		mov	r3, r6
 249 009c 02E0     		b	.L23
 250              	.LVL20:
 251              	.L21:
 252              		.loc 2 39 0
 253 009e 9968     		ldr	r1, [r3, #8]
 254 00a0 9142     		cmp	r1, r2
 255 00a2 02D3     		bcc	.L22
 256              	.L23:
 257              		.loc 2 38 0
 258 00a4 1B68     		ldr	r3, [r3]
 259              	.LVL21:
 260              		.loc 2 39 0
 261 00a6 9E42     		cmp	r6, r3
 262 00a8 F9D1     		bne	.L21
 263              	.L22:
 264              		.loc 2 41 0
 265 00aa 5A68     		ldr	r2, [r3, #4]
 266 00ac 4260     		str	r2, [r0, #4]
 267              		.loc 2 40 0
 268 00ae 0360     		str	r3, [r0]
 269              		.loc 2 42 0
 270 00b0 5860     		str	r0, [r3, #4]
 271 00b2 1060     		str	r0, [r2]
 272 00b4 BBE7     		b	.L11
 273              	.LVL22:
 274              	.L12:
 275              	.LBE43:
 276              	.LBE42:
 277              	.LBB44:
 278              	.LBB45:
 279              		.loc 2 68 0
 280 00b6 90E80A00 		ldmia	r0, {r1, r3}
 281 00ba 1960     		str	r1, [r3]
 282              	.LBE45:
 283              	.LBE44:
 284              		.loc 1 135 0
 285 00bc 866A     		ldr	r6, [r0, #40]
ARM GAS  /tmp/ccXVtwnO.s 			page 6


 286              	.LVL23:
 287              	.LBB47:
 288              	.LBB46:
 289              		.loc 2 69 0
 290 00be 0168     		ldr	r1, [r0]
 291 00c0 4B60     		str	r3, [r1, #4]
 292              	.LBE46:
 293              	.LBE47:
 294              		.loc 1 135 0
 295 00c2 3346     		mov	r3, r6
 296 00c4 02E0     		b	.L19
 297              	.LVL24:
 298              	.L15:
 299              	.LBB48:
 300              	.LBB49:
 301              		.loc 2 39 0
 302 00c6 9968     		ldr	r1, [r3, #8]
 303 00c8 9142     		cmp	r1, r2
 304 00ca 02D3     		bcc	.L18
 305              	.L19:
 306              		.loc 2 38 0
 307 00cc 1B68     		ldr	r3, [r3]
 308              	.LVL25:
 309              		.loc 2 39 0
 310 00ce 9E42     		cmp	r6, r3
 311 00d0 F9D1     		bne	.L15
 312              	.L18:
 313              		.loc 2 41 0
 314 00d2 5A68     		ldr	r2, [r3, #4]
 315 00d4 4260     		str	r2, [r0, #4]
 316              		.loc 2 40 0
 317 00d6 0360     		str	r3, [r0]
 318              		.loc 2 42 0
 319 00d8 5860     		str	r0, [r3, #4]
 320 00da 1060     		str	r0, [r2]
 321              	.LBE49:
 322              	.LBE48:
 323              		.loc 1 136 0
 324 00dc B068     		ldr	r0, [r6, #8]
 325              	.LVL26:
 326              		.loc 1 128 0
 327 00de A268     		ldr	r2, [r4, #8]
 328 00e0 8368     		ldr	r3, [r0, #8]
 329              	.LVL27:
 330 00e2 9342     		cmp	r3, r2
 331 00e4 9BD3     		bcc	.L20
 332 00e6 A2E7     		b	.L11
 333              	.LVL28:
 334              	.L30:
 335              	.LBE51:
 336              		.loc 1 118 0 discriminator 1
 337 00e8 0448     		ldr	r0, .L32+12
 338 00ea FFF7FEFF 		bl	chDbgPanic
 339              	.LVL29:
 340 00ee 8FE7     		b	.L8
 341              	.L33:
 342              		.align	2
ARM GAS  /tmp/ccXVtwnO.s 			page 7


 343              	.L32:
 344 00f0 00000000 		.word	rlist
 345 00f4 20000000 		.word	.LC2
 346 00f8 34000000 		.word	.LC3
 347 00fc 10000000 		.word	.LC1
 348              		.cfi_endproc
 349              	.LFE9:
 350              		.size	chMtxLockS, .-chMtxLockS
 351              		.section	.text.chMtxLock,"ax",%progbits
 352              		.align	2
 353              		.p2align 4,,15
 354              		.global	chMtxLock
 355              		.thumb
 356              		.thumb_func
 357              		.type	chMtxLock, %function
 358              	chMtxLock:
 359              	.LFB8:
 360              		.loc 1 96 0
 361              		.cfi_startproc
 362              		@ args = 0, pretend = 0, frame = 0
 363              		@ frame_needed = 0, uses_anonymous_args = 0
 364              	.LVL30:
 365 0000 10B5     		push	{r4, lr}
 366              		.cfi_def_cfa_offset 8
 367              		.cfi_offset 4, -8
 368              		.cfi_offset 14, -4
 369              	.LBB52:
 370              		.loc 1 98 0
 371 0002 2023     		movs	r3, #32
 372              	.LBE52:
 373              		.loc 1 96 0
 374 0004 0446     		mov	r4, r0
 375              	.LBB53:
 376              		.loc 1 98 0
 377              	@ 98 "../../../os/kernel/src/chmtx.c" 1
 378 0006 83F31188 		msr     BASEPRI, r3
 379              	@ 0 "" 2
 380              		.thumb
 381              	.LBE53:
 382 000a FFF7FEFF 		bl	dbg_check_lock
 383              	.LVL31:
 384              		.loc 1 100 0
 385 000e 2046     		mov	r0, r4
 386 0010 FFF7FEFF 		bl	chMtxLockS
 387              	.LVL32:
 388              		.loc 1 102 0
 389 0014 FFF7FEFF 		bl	dbg_check_unlock
 390              	.LVL33:
 391              	.LBB54:
 392 0018 0023     		movs	r3, #0
 393              	@ 102 "../../../os/kernel/src/chmtx.c" 1
 394 001a 83F31188 		msr     BASEPRI, r3
 395              	@ 0 "" 2
 396              		.thumb
 397 001e 10BD     		pop	{r4, pc}
 398              	.LBE54:
 399              		.cfi_endproc
ARM GAS  /tmp/ccXVtwnO.s 			page 8


 400              	.LFE8:
 401              		.size	chMtxLock, .-chMtxLock
 402              		.section	.text.chMtxTryLockS,"ax",%progbits
 403              		.align	2
 404              		.p2align 4,,15
 405              		.global	chMtxTryLockS
 406              		.thumb
 407              		.thumb_func
 408              		.type	chMtxTryLockS, %function
 409              	chMtxTryLockS:
 410              	.LFB11:
 411              		.loc 1 227 0
 412              		.cfi_startproc
 413              		@ args = 0, pretend = 0, frame = 0
 414              		@ frame_needed = 0, uses_anonymous_args = 0
 415              	.LVL34:
 416 0000 10B5     		push	{r4, lr}
 417              		.cfi_def_cfa_offset 8
 418              		.cfi_offset 4, -8
 419              		.cfi_offset 14, -4
 420              		.loc 1 227 0
 421 0002 0446     		mov	r4, r0
 422              		.loc 1 229 0
 423 0004 FFF7FEFF 		bl	chDbgCheckClassS
 424              	.LVL35:
 425              		.loc 1 230 0
 426 0008 5CB1     		cbz	r4, .L39
 427              	.L36:
 428              		.loc 1 232 0
 429 000a A368     		ldr	r3, [r4, #8]
 430 000c 0BB1     		cbz	r3, .L40
 431              		.loc 1 233 0
 432 000e 0020     		movs	r0, #0
 433              		.loc 1 238 0
 434 0010 10BD     		pop	{r4, pc}
 435              	.LVL36:
 436              	.L40:
 437              		.loc 1 234 0
 438 0012 064B     		ldr	r3, .L41
 439 0014 9B69     		ldr	r3, [r3, #24]
 440 0016 A360     		str	r3, [r4, #8]
 441              		.loc 1 235 0
 442 0018 1A6C     		ldr	r2, [r3, #64]
 443 001a E260     		str	r2, [r4, #12]
 444              		.loc 1 237 0
 445 001c 0120     		movs	r0, #1
 446              		.loc 1 236 0
 447 001e 1C64     		str	r4, [r3, #64]
 448              		.loc 1 237 0
 449 0020 10BD     		pop	{r4, pc}
 450              	.LVL37:
 451              	.L39:
 452              		.loc 1 230 0 discriminator 1
 453 0022 0348     		ldr	r0, .L41+4
 454 0024 FFF7FEFF 		bl	chDbgPanic
 455              	.LVL38:
 456 0028 EFE7     		b	.L36
ARM GAS  /tmp/ccXVtwnO.s 			page 9


 457              	.L42:
 458 002a 00BF     		.align	2
 459              	.L41:
 460 002c 00000000 		.word	rlist
 461 0030 48000000 		.word	.LC4
 462              		.cfi_endproc
 463              	.LFE11:
 464              		.size	chMtxTryLockS, .-chMtxTryLockS
 465 0034 AFF30080 		.section	.text.chMtxTryLock,"ax",%progbits
 465      AFF30080 
 465      AFF30080 
 466              		.align	2
 467              		.p2align 4,,15
 468              		.global	chMtxTryLock
 469              		.thumb
 470              		.thumb_func
 471              		.type	chMtxTryLock, %function
 472              	chMtxTryLock:
 473              	.LFB10:
 474              		.loc 1 199 0
 475              		.cfi_startproc
 476              		@ args = 0, pretend = 0, frame = 0
 477              		@ frame_needed = 0, uses_anonymous_args = 0
 478              	.LVL39:
 479 0000 10B5     		push	{r4, lr}
 480              		.cfi_def_cfa_offset 8
 481              		.cfi_offset 4, -8
 482              		.cfi_offset 14, -4
 483              	.LBB55:
 484              		.loc 1 202 0
 485 0002 2023     		movs	r3, #32
 486              	.LBE55:
 487              		.loc 1 199 0
 488 0004 0446     		mov	r4, r0
 489              	.LBB56:
 490              		.loc 1 202 0
 491              	@ 202 "../../../os/kernel/src/chmtx.c" 1
 492 0006 83F31188 		msr     BASEPRI, r3
 493              	@ 0 "" 2
 494              		.thumb
 495              	.LBE56:
 496 000a FFF7FEFF 		bl	dbg_check_lock
 497              	.LVL40:
 498              		.loc 1 204 0
 499 000e 2046     		mov	r0, r4
 500 0010 FFF7FEFF 		bl	chMtxTryLockS
 501              	.LVL41:
 502 0014 0446     		mov	r4, r0
 503              	.LVL42:
 504              		.loc 1 206 0
 505 0016 FFF7FEFF 		bl	dbg_check_unlock
 506              	.LVL43:
 507              	.LBB57:
 508 001a 0023     		movs	r3, #0
 509              	@ 206 "../../../os/kernel/src/chmtx.c" 1
 510 001c 83F31188 		msr     BASEPRI, r3
 511              	@ 0 "" 2
ARM GAS  /tmp/ccXVtwnO.s 			page 10


 512              		.thumb
 513              	.LBE57:
 514              		.loc 1 208 0
 515 0020 2046     		mov	r0, r4
 516 0022 10BD     		pop	{r4, pc}
 517              		.cfi_endproc
 518              	.LFE10:
 519              		.size	chMtxTryLock, .-chMtxTryLock
 520 0024 AFF30080 		.section	.text.chMtxUnlock,"ax",%progbits
 520      AFF30080 
 520      AFF30080 
 521              		.align	2
 522              		.p2align 4,,15
 523              		.global	chMtxUnlock
 524              		.thumb
 525              		.thumb_func
 526              		.type	chMtxUnlock, %function
 527              	chMtxUnlock:
 528              	.LFB12:
 529              		.loc 1 250 0
 530              		.cfi_startproc
 531              		@ args = 0, pretend = 0, frame = 0
 532              		@ frame_needed = 0, uses_anonymous_args = 0
 533              		.loc 1 251 0
 534 0000 1E4A     		ldr	r2, .L59
 535              		.loc 1 250 0
 536 0002 70B5     		push	{r4, r5, r6, lr}
 537              		.cfi_def_cfa_offset 16
 538              		.cfi_offset 4, -16
 539              		.cfi_offset 5, -12
 540              		.cfi_offset 6, -8
 541              		.cfi_offset 14, -4
 542              	.LBB58:
 543              		.loc 1 254 0
 544 0004 2023     		movs	r3, #32
 545              	.LBE58:
 546              		.loc 1 251 0
 547 0006 9569     		ldr	r5, [r2, #24]
 548              	.LVL44:
 549              	.LBB59:
 550              		.loc 1 254 0
 551              	@ 254 "../../../os/kernel/src/chmtx.c" 1
 552 0008 83F31188 		msr     BASEPRI, r3
 553              	@ 0 "" 2
 554              		.thumb
 555              	.LBE59:
 556 000c FFF7FEFF 		bl	dbg_check_lock
 557              	.LVL45:
 558              		.loc 1 255 0
 559 0010 2C6C     		ldr	r4, [r5, #64]
 560 0012 002C     		cmp	r4, #0
 561 0014 2DD0     		beq	.L58
 562              	.L45:
 563              		.loc 1 258 0
 564 0016 A368     		ldr	r3, [r4, #8]
 565 0018 AB42     		cmp	r3, r5
 566 001a 03D0     		beq	.L46
ARM GAS  /tmp/ccXVtwnO.s 			page 11


 567              		.loc 1 258 0 is_stmt 0 discriminator 1
 568 001c 1848     		ldr	r0, .L59+4
 569 001e FFF7FEFF 		bl	chDbgPanic
 570              	.LVL46:
 571 0022 2C6C     		ldr	r4, [r5, #64]
 572              	.L46:
 573              	.LVL47:
 574              		.loc 1 266 0 is_stmt 1
 575 0024 2668     		ldr	r6, [r4]
 576              		.loc 1 264 0
 577 0026 E368     		ldr	r3, [r4, #12]
 578 0028 2B64     		str	r3, [r5, #64]
 579              		.loc 1 266 0
 580 002a A642     		cmp	r6, r4
 581 002c 1ED0     		beq	.L47
 582              	.LBB60:
 583              		.loc 1 271 0
 584 002e 696C     		ldr	r1, [r5, #68]
 585              	.LVL48:
 586              		.loc 1 273 0
 587 0030 4BB1     		cbz	r3, .L48
 588              	.L50:
 589              		.loc 1 277 0
 590 0032 1A68     		ldr	r2, [r3]
 591 0034 9A42     		cmp	r2, r3
 592 0036 03D0     		beq	.L49
 593              		.loc 1 277 0 is_stmt 0 discriminator 1
 594 0038 9268     		ldr	r2, [r2, #8]
 595 003a 9142     		cmp	r1, r2
 596 003c 38BF     		it	cc
 597 003e 1146     		movcc	r1, r2
 598              	.LVL49:
 599              	.L49:
 600              		.loc 1 279 0 is_stmt 1
 601 0040 DB68     		ldr	r3, [r3, #12]
 602              	.LVL50:
 603              		.loc 1 273 0
 604 0042 002B     		cmp	r3, #0
 605 0044 F5D1     		bne	.L50
 606              	.L48:
 607              	.LBB61:
 608              	.LBB62:
 609              		.loc 2 55 0
 610 0046 3368     		ldr	r3, [r6]
 611              	.LVL51:
 612              	.LBE62:
 613              	.LBE61:
 614              		.loc 1 288 0
 615 0048 326C     		ldr	r2, [r6, #64]
 616              		.loc 1 283 0
 617 004a A960     		str	r1, [r5, #8]
 618              	.LVL52:
 619              		.loc 1 290 0
 620 004c 3046     		mov	r0, r6
 621              	.LBB65:
 622              	.LBB63:
 623              		.loc 2 55 0
ARM GAS  /tmp/ccXVtwnO.s 			page 12


 624 004e 2360     		str	r3, [r4]
 625              	.LBE63:
 626              	.LBE65:
 627              		.loc 1 290 0
 628 0050 0021     		movs	r1, #0
 629              	.LVL53:
 630              	.LBB66:
 631              	.LBB64:
 632              		.loc 2 55 0
 633 0052 5C60     		str	r4, [r3, #4]
 634              	.LBE64:
 635              	.LBE66:
 636              		.loc 1 287 0
 637 0054 A660     		str	r6, [r4, #8]
 638              		.loc 1 288 0
 639 0056 E260     		str	r2, [r4, #12]
 640              		.loc 1 289 0
 641 0058 3464     		str	r4, [r6, #64]
 642              		.loc 1 290 0
 643 005a FFF7FEFF 		bl	chSchWakeupS
 644              	.LVL54:
 645              	.L51:
 646              	.LBE60:
 647              		.loc 1 294 0
 648 005e FFF7FEFF 		bl	dbg_check_unlock
 649              	.LVL55:
 650              	.LBB67:
 651 0062 0023     		movs	r3, #0
 652              	@ 294 "../../../os/kernel/src/chmtx.c" 1
 653 0064 83F31188 		msr     BASEPRI, r3
 654              	@ 0 "" 2
 655              		.thumb
 656              	.LBE67:
 657              		.loc 1 296 0
 658 0068 2046     		mov	r0, r4
 659 006a 70BD     		pop	{r4, r5, r6, pc}
 660              	.LVL56:
 661              	.L47:
 662              		.loc 1 293 0
 663 006c 0023     		movs	r3, #0
 664 006e A360     		str	r3, [r4, #8]
 665 0070 F5E7     		b	.L51
 666              	.LVL57:
 667              	.L58:
 668              		.loc 1 255 0 discriminator 1
 669 0072 0448     		ldr	r0, .L59+8
 670 0074 FFF7FEFF 		bl	chDbgPanic
 671              	.LVL58:
 672 0078 2C6C     		ldr	r4, [r5, #64]
 673 007a CCE7     		b	.L45
 674              	.L60:
 675              		.align	2
 676              	.L59:
 677 007c 00000000 		.word	rlist
 678 0080 70000000 		.word	.LC6
 679 0084 5C000000 		.word	.LC5
 680              		.cfi_endproc
ARM GAS  /tmp/ccXVtwnO.s 			page 13


 681              	.LFE12:
 682              		.size	chMtxUnlock, .-chMtxUnlock
 683 0088 AFF30080 		.section	.text.chMtxUnlockS,"ax",%progbits
 683      AFF30080 
 684              		.align	2
 685              		.p2align 4,,15
 686              		.global	chMtxUnlockS
 687              		.thumb
 688              		.thumb_func
 689              		.type	chMtxUnlockS, %function
 690              	chMtxUnlockS:
 691              	.LFB13:
 692              		.loc 1 310 0
 693              		.cfi_startproc
 694              		@ args = 0, pretend = 0, frame = 0
 695              		@ frame_needed = 0, uses_anonymous_args = 0
 696              		.loc 1 311 0
 697 0000 1A4B     		ldr	r3, .L76
 698              		.loc 1 310 0
 699 0002 70B5     		push	{r4, r5, r6, lr}
 700              		.cfi_def_cfa_offset 16
 701              		.cfi_offset 4, -16
 702              		.cfi_offset 5, -12
 703              		.cfi_offset 6, -8
 704              		.cfi_offset 14, -4
 705              		.loc 1 311 0
 706 0004 9D69     		ldr	r5, [r3, #24]
 707              	.LVL59:
 708              		.loc 1 314 0
 709 0006 FFF7FEFF 		bl	chDbgCheckClassS
 710              	.LVL60:
 711              		.loc 1 315 0
 712 000a 2C6C     		ldr	r4, [r5, #64]
 713 000c 002C     		cmp	r4, #0
 714 000e 28D0     		beq	.L75
 715              	.L62:
 716              		.loc 1 318 0
 717 0010 A368     		ldr	r3, [r4, #8]
 718 0012 AB42     		cmp	r3, r5
 719 0014 03D0     		beq	.L63
 720              		.loc 1 318 0 is_stmt 0 discriminator 1
 721 0016 1648     		ldr	r0, .L76+4
 722 0018 FFF7FEFF 		bl	chDbgPanic
 723              	.LVL61:
 724 001c 2C6C     		ldr	r4, [r5, #64]
 725              	.L63:
 726              	.LVL62:
 727              		.loc 1 327 0 is_stmt 1
 728 001e 2668     		ldr	r6, [r4]
 729              		.loc 1 325 0
 730 0020 E368     		ldr	r3, [r4, #12]
 731 0022 2B64     		str	r3, [r5, #64]
 732              		.loc 1 327 0
 733 0024 A642     		cmp	r6, r4
 734 0026 18D0     		beq	.L64
 735              	.LBB68:
 736              		.loc 1 332 0
ARM GAS  /tmp/ccXVtwnO.s 			page 14


 737 0028 696C     		ldr	r1, [r5, #68]
 738              	.LVL63:
 739              		.loc 1 334 0
 740 002a 4BB1     		cbz	r3, .L65
 741              	.L67:
 742              		.loc 1 338 0
 743 002c 1A68     		ldr	r2, [r3]
 744 002e 9A42     		cmp	r2, r3
 745 0030 03D0     		beq	.L66
 746              		.loc 1 338 0 is_stmt 0 discriminator 1
 747 0032 9268     		ldr	r2, [r2, #8]
 748 0034 9142     		cmp	r1, r2
 749 0036 38BF     		it	cc
 750 0038 1146     		movcc	r1, r2
 751              	.LVL64:
 752              	.L66:
 753              		.loc 1 340 0 is_stmt 1
 754 003a DB68     		ldr	r3, [r3, #12]
 755              	.LVL65:
 756              		.loc 1 334 0
 757 003c 002B     		cmp	r3, #0
 758 003e F5D1     		bne	.L67
 759              	.L65:
 760              	.LBB69:
 761              	.LBB70:
 762              		.loc 2 55 0
 763 0040 3368     		ldr	r3, [r6]
 764              	.LVL66:
 765              	.LBE70:
 766              	.LBE69:
 767              		.loc 1 347 0
 768 0042 326C     		ldr	r2, [r6, #64]
 769              		.loc 1 342 0
 770 0044 A960     		str	r1, [r5, #8]
 771              	.LVL67:
 772              		.loc 1 349 0
 773 0046 3046     		mov	r0, r6
 774              	.LBB72:
 775              	.LBB71:
 776              		.loc 2 55 0
 777 0048 2360     		str	r3, [r4]
 778 004a 5C60     		str	r4, [r3, #4]
 779              	.LBE71:
 780              	.LBE72:
 781              		.loc 1 346 0
 782 004c A660     		str	r6, [r4, #8]
 783              		.loc 1 347 0
 784 004e E260     		str	r2, [r4, #12]
 785              		.loc 1 348 0
 786 0050 3464     		str	r4, [r6, #64]
 787              		.loc 1 349 0
 788 0052 FFF7FEFF 		bl	chSchReadyI
 789              	.LVL68:
 790              	.LBE68:
 791              		.loc 1 354 0
 792 0056 2046     		mov	r0, r4
 793 0058 70BD     		pop	{r4, r5, r6, pc}
ARM GAS  /tmp/ccXVtwnO.s 			page 15


 794              	.LVL69:
 795              	.L64:
 796              		.loc 1 352 0
 797 005a 0023     		movs	r3, #0
 798 005c A360     		str	r3, [r4, #8]
 799              		.loc 1 354 0
 800 005e 2046     		mov	r0, r4
 801 0060 70BD     		pop	{r4, r5, r6, pc}
 802              	.LVL70:
 803              	.L75:
 804              		.loc 1 315 0 discriminator 1
 805 0062 0448     		ldr	r0, .L76+8
 806 0064 FFF7FEFF 		bl	chDbgPanic
 807              	.LVL71:
 808 0068 2C6C     		ldr	r4, [r5, #64]
 809 006a D1E7     		b	.L62
 810              	.L77:
 811              		.align	2
 812              	.L76:
 813 006c 00000000 		.word	rlist
 814 0070 98000000 		.word	.LC8
 815 0074 84000000 		.word	.LC7
 816              		.cfi_endproc
 817              	.LFE13:
 818              		.size	chMtxUnlockS, .-chMtxUnlockS
 819 0078 AFF30080 		.section	.text.chMtxUnlockAll,"ax",%progbits
 819      AFF30080 
 820              		.align	2
 821              		.p2align 4,,15
 822              		.global	chMtxUnlockAll
 823              		.thumb
 824              		.thumb_func
 825              		.type	chMtxUnlockAll, %function
 826              	chMtxUnlockAll:
 827              	.LFB14:
 828              		.loc 1 367 0
 829              		.cfi_startproc
 830              		@ args = 0, pretend = 0, frame = 0
 831              		@ frame_needed = 0, uses_anonymous_args = 0
 832              		.loc 1 368 0
 833 0000 154A     		ldr	r2, .L89
 834              		.loc 1 367 0
 835 0002 70B5     		push	{r4, r5, r6, lr}
 836              		.cfi_def_cfa_offset 16
 837              		.cfi_offset 4, -16
 838              		.cfi_offset 5, -12
 839              		.cfi_offset 6, -8
 840              		.cfi_offset 14, -4
 841              	.LBB73:
 842              		.loc 1 370 0
 843 0004 2023     		movs	r3, #32
 844              	.LBE73:
 845              		.loc 1 368 0
 846 0006 9469     		ldr	r4, [r2, #24]
 847              	.LVL72:
 848              	.LBB74:
 849              		.loc 1 370 0
ARM GAS  /tmp/ccXVtwnO.s 			page 16


 850              	@ 370 "../../../os/kernel/src/chmtx.c" 1
 851 0008 83F31188 		msr     BASEPRI, r3
 852              	@ 0 "" 2
 853              		.thumb
 854              	.LBE74:
 855 000c FFF7FEFF 		bl	dbg_check_lock
 856              	.LVL73:
 857              		.loc 1 371 0
 858 0010 236C     		ldr	r3, [r4, #64]
 859 0012 D3B1     		cbz	r3, .L79
 860              	.LBB75:
 861              		.loc 1 383 0
 862 0014 0026     		movs	r6, #0
 863 0016 0BE0     		b	.L83
 864              	.LVL74:
 865              	.L88:
 866              	.LBB76:
 867              	.LBB77:
 868              	.LBB78:
 869              		.loc 2 55 0
 870 0018 1168     		ldr	r1, [r2]
 871              	.LBE78:
 872              	.LBE77:
 873              		.loc 1 378 0
 874 001a 156C     		ldr	r5, [r2, #64]
 875              	.LBB81:
 876              	.LBB79:
 877              		.loc 2 55 0
 878 001c 1960     		str	r1, [r3]
 879              	.LBE79:
 880              	.LBE81:
 881              		.loc 1 380 0
 882 001e 1046     		mov	r0, r2
 883              	.LBB82:
 884              	.LBB80:
 885              		.loc 2 55 0
 886 0020 4B60     		str	r3, [r1, #4]
 887              	.LBE80:
 888              	.LBE82:
 889              		.loc 1 377 0
 890 0022 9A60     		str	r2, [r3, #8]
 891              		.loc 1 378 0
 892 0024 DD60     		str	r5, [r3, #12]
 893              		.loc 1 379 0
 894 0026 1364     		str	r3, [r2, #64]
 895              		.loc 1 380 0
 896 0028 FFF7FEFF 		bl	chSchReadyI
 897              	.LVL75:
 898              	.LBE76:
 899              	.LBE75:
 900              		.loc 1 384 0
 901 002c 236C     		ldr	r3, [r4, #64]
 902 002e 43B1     		cbz	r3, .L87
 903              	.L83:
 904              	.LVL76:
 905              	.LBB83:
 906              		.loc 1 375 0
ARM GAS  /tmp/ccXVtwnO.s 			page 17


 907 0030 1A68     		ldr	r2, [r3]
 908              	.LVL77:
 909              		.loc 1 374 0
 910 0032 D968     		ldr	r1, [r3, #12]
 911 0034 2164     		str	r1, [r4, #64]
 912              		.loc 1 375 0
 913 0036 9A42     		cmp	r2, r3
 914 0038 EED1     		bne	.L88
 915              		.loc 1 383 0
 916 003a 9E60     		str	r6, [r3, #8]
 917              	.LBE83:
 918              		.loc 1 384 0
 919 003c 236C     		ldr	r3, [r4, #64]
 920              	.LVL78:
 921 003e 002B     		cmp	r3, #0
 922 0040 F6D1     		bne	.L83
 923              	.LVL79:
 924              	.L87:
 925              		.loc 1 385 0
 926 0042 636C     		ldr	r3, [r4, #68]
 927 0044 A360     		str	r3, [r4, #8]
 928              		.loc 1 386 0
 929 0046 FFF7FEFF 		bl	chSchRescheduleS
 930              	.LVL80:
 931              	.L79:
 932              		.loc 1 388 0
 933 004a FFF7FEFF 		bl	dbg_check_unlock
 934              	.LVL81:
 935              	.LBB84:
 936 004e 0023     		movs	r3, #0
 937              	@ 388 "../../../os/kernel/src/chmtx.c" 1
 938 0050 83F31188 		msr     BASEPRI, r3
 939              	@ 0 "" 2
 940              		.thumb
 941 0054 70BD     		pop	{r4, r5, r6, pc}
 942              	.LVL82:
 943              	.L90:
 944 0056 00BF     		.align	2
 945              	.L89:
 946 0058 00000000 		.word	rlist
 947              	.LBE84:
 948              		.cfi_endproc
 949              	.LFE14:
 950              		.size	chMtxUnlockAll, .-chMtxUnlockAll
 951 005c AFF30080 		.section	.rodata.str1.4,"aMS",%progbits,1
 952              		.align	2
 953              	.LC0:
 954 0000 2263684D 		.ascii	"\"chMtxInit\"()\000"
 954      7478496E 
 954      69742228 
 954      2900
 955 000e 0000     		.space	2
 956              	.LC1:
 957 0010 2263684D 		.ascii	"\"chMtxLockS\"()\000"
 957      74784C6F 
 957      636B5322 
 957      282900
ARM GAS  /tmp/ccXVtwnO.s 			page 18


 958 001f 00       		.space	1
 959              	.LC2:
 960 0020 63684D74 		.ascii	"chMtxLockS(), #1\000"
 960      784C6F63 
 960      6B532829 
 960      2C202331 
 960      00
 961 0031 000000   		.space	3
 962              	.LC3:
 963 0034 63684D74 		.ascii	"chMtxLockS(), #2\000"
 963      784C6F63 
 963      6B532829 
 963      2C202332 
 963      00
 964 0045 000000   		.space	3
 965              	.LC4:
 966 0048 2263684D 		.ascii	"\"chMtxTryLockS\"()\000"
 966      74785472 
 966      794C6F63 
 966      6B532228 
 966      2900
 967 005a 0000     		.space	2
 968              	.LC5:
 969 005c 63684D74 		.ascii	"chMtxUnlock(), #1\000"
 969      78556E6C 
 969      6F636B28 
 969      292C2023 
 969      3100
 970 006e 0000     		.space	2
 971              	.LC6:
 972 0070 63684D74 		.ascii	"chMtxUnlock(), #2\000"
 972      78556E6C 
 972      6F636B28 
 972      292C2023 
 972      3200
 973 0082 0000     		.space	2
 974              	.LC7:
 975 0084 63684D74 		.ascii	"chMtxUnlockS(), #1\000"
 975      78556E6C 
 975      6F636B53 
 975      28292C20 
 975      233100
 976 0097 00       		.space	1
 977              	.LC8:
 978 0098 63684D74 		.ascii	"chMtxUnlockS(), #2\000"
 978      78556E6C 
 978      6F636B53 
 978      28292C20 
 978      233200
 979 00ab 00       		.text
 980              	.Letext0:
 981              		.file 3 "/usr/local/csl/gcc-arm-none-eabi-4_8-2013q4/arm-none-eabi/include/stdint.h"
 982              		.file 4 "../../../os/ports/GCC/ARMCMx/chtypes.h"
 983              		.file 5 "../../../os/kernel/include/chlists.h"
 984              		.file 6 "../../../os/kernel/include/chthreads.h"
 985              		.file 7 "../../../os/ports/GCC/ARMCMx/chcore_v7m.h"
 986              		.file 8 "../../../os/kernel/include/chschd.h"
ARM GAS  /tmp/ccXVtwnO.s 			page 19


 987              		.file 9 "../../../os/kernel/include/chmtx.h"
 988              		.file 10 "../../../os/kernel/include/chdebug.h"