ARM GAS  /tmp/ccXTnCnI.s 			page 1


   1              		.syntax unified
   2              		.cpu cortex-m4
   3              		.fpu softvfp
   4              		.eabi_attribute 20, 1
   5              		.eabi_attribute 21, 1
   6              		.eabi_attribute 23, 3
   7              		.eabi_attribute 24, 1
   8              		.eabi_attribute 25, 1
   9              		.eabi_attribute 26, 1
  10              		.eabi_attribute 30, 2
  11              		.eabi_attribute 34, 1
  12              		.eabi_attribute 18, 4
  13              		.thumb
  14              		.file	"chsem.c"
  15              		.text
  16              	.Ltext0:
  17              		.cfi_sections	.debug_frame
  18              		.section	.text.chSemInit,"ax",%progbits
  19              		.align	2
  20              		.p2align 4,,15
  21              		.global	chSemInit
  22              		.thumb
  23              		.thumb_func
  24              		.type	chSemInit, %function
  25              	chSemInit:
  26              	.LFB7:
  27              		.file 1 "../../../os/kernel/src/chsem.c"
  28              		.loc 1 79 0
  29              		.cfi_startproc
  30              		@ args = 0, pretend = 0, frame = 0
  31              		@ frame_needed = 0, uses_anonymous_args = 0
  32              	.LVL0:
  33 0000 38B5     		push	{r3, r4, r5, lr}
  34              		.cfi_def_cfa_offset 16
  35              		.cfi_offset 3, -16
  36              		.cfi_offset 4, -12
  37              		.cfi_offset 5, -8
  38              		.cfi_offset 14, -4
  39              		.loc 1 81 0
  40 0002 0446     		mov	r4, r0
  41              		.loc 1 79 0
  42 0004 0D46     		mov	r5, r1
  43              		.loc 1 81 0
  44 0006 28B1     		cbz	r0, .L2
  45              		.loc 1 81 0 is_stmt 0 discriminator 2
  46 0008 0029     		cmp	r1, #0
  47 000a 03DB     		blt	.L2
  48              		.loc 1 83 0 is_stmt 1
  49 000c 6460     		str	r4, [r4, #4]
  50 000e 2460     		str	r4, [r4]
  51              		.loc 1 84 0
  52 0010 A560     		str	r5, [r4, #8]
  53 0012 38BD     		pop	{r3, r4, r5, pc}
  54              	.L2:
  55              		.loc 1 81 0 discriminator 1
  56 0014 0348     		ldr	r0, .L8
  57              	.LVL1:
ARM GAS  /tmp/ccXTnCnI.s 			page 2


  58 0016 FFF7FEFF 		bl	chDbgPanic
  59              	.LVL2:
  60              		.loc 1 83 0 discriminator 1
  61 001a 6460     		str	r4, [r4, #4]
  62 001c 2460     		str	r4, [r4]
  63              		.loc 1 84 0 discriminator 1
  64 001e A560     		str	r5, [r4, #8]
  65 0020 38BD     		pop	{r3, r4, r5, pc}
  66              	.LVL3:
  67              	.L9:
  68 0022 00BF     		.align	2
  69              	.L8:
  70 0024 00000000 		.word	.LC0
  71              		.cfi_endproc
  72              	.LFE7:
  73              		.size	chSemInit, .-chSemInit
  74 0028 AFF30080 		.section	.text.chSemResetI,"ax",%progbits
  74      AFF30080 
  75              		.align	2
  76              		.p2align 4,,15
  77              		.global	chSemResetI
  78              		.thumb
  79              		.thumb_func
  80              		.type	chSemResetI, %function
  81              	chSemResetI:
  82              	.LFB9:
  83              		.loc 1 129 0
  84              		.cfi_startproc
  85              		@ args = 0, pretend = 0, frame = 0
  86              		@ frame_needed = 0, uses_anonymous_args = 0
  87              	.LVL4:
  88 0000 70B5     		push	{r4, r5, r6, lr}
  89              		.cfi_def_cfa_offset 16
  90              		.cfi_offset 4, -16
  91              		.cfi_offset 5, -12
  92              		.cfi_offset 6, -8
  93              		.cfi_offset 14, -4
  94              		.loc 1 129 0
  95 0002 0446     		mov	r4, r0
  96 0004 0E46     		mov	r6, r1
  97              		.loc 1 132 0
  98 0006 FFF7FEFF 		bl	chDbgCheckClassI
  99              	.LVL5:
 100              		.loc 1 133 0
 101 000a FCB1     		cbz	r4, .L11
 102              		.loc 1 133 0 is_stmt 0 discriminator 2
 103 000c 002E     		cmp	r6, #0
 104 000e 1DDB     		blt	.L11
 105              	.L12:
 106              		.loc 1 134 0 is_stmt 1
 107 0010 A568     		ldr	r5, [r4, #8]
 108 0012 2368     		ldr	r3, [r4]
 109 0014 002D     		cmp	r5, #0
 110 0016 16DB     		blt	.L13
 111              		.loc 1 134 0 is_stmt 0 discriminator 2
 112 0018 A342     		cmp	r3, r4
 113 001a 03D0     		beq	.L15
ARM GAS  /tmp/ccXTnCnI.s 			page 3


 114              	.L14:
 115              		.loc 1 134 0 discriminator 1
 116 001c 0D48     		ldr	r0, .L25
 117 001e FFF7FEFF 		bl	chDbgPanic
 118              	.LVL6:
 119 0022 A568     		ldr	r5, [r4, #8]
 120              	.L15:
 121              	.LVL7:
 122              		.loc 1 141 0 is_stmt 1
 123 0024 0135     		adds	r5, r5, #1
 124              	.LVL8:
 125 0026 002D     		cmp	r5, #0
 126              		.loc 1 140 0
 127 0028 A660     		str	r6, [r4, #8]
 128              	.LVL9:
 129              		.loc 1 141 0
 130 002a 0BDC     		bgt	.L10
 131              		.loc 1 142 0
 132 002c 6FF00106 		mvn	r6, #1
 133              	.LVL10:
 134              	.L18:
 135              	.LBB24:
 136              	.LBB25:
 137              		.file 2 "../../../os/kernel/include/chinline.h"
 138              		.loc 2 60 0
 139 0030 6068     		ldr	r0, [r4, #4]
 140              	.LVL11:
 141              		.loc 2 62 0
 142 0032 4368     		ldr	r3, [r0, #4]
 143 0034 6360     		str	r3, [r4, #4]
 144 0036 1C60     		str	r4, [r3]
 145              	.LBE25:
 146              	.LBE24:
 147              		.loc 1 142 0
 148 0038 FFF7FEFF 		bl	chSchReadyI
 149              	.LVL12:
 150              		.loc 1 141 0
 151 003c 0135     		adds	r5, r5, #1
 152              	.LVL13:
 153 003e 012D     		cmp	r5, #1
 154              		.loc 1 142 0
 155 0040 8662     		str	r6, [r0, #40]
 156              	.LVL14:
 157              		.loc 1 141 0
 158 0042 F5D1     		bne	.L18
 159              	.LVL15:
 160              	.L10:
 161 0044 70BD     		pop	{r4, r5, r6, pc}
 162              	.LVL16:
 163              	.L13:
 164              		.loc 1 134 0 discriminator 2
 165 0046 A342     		cmp	r3, r4
 166 0048 ECD1     		bne	.L15
 167 004a E7E7     		b	.L14
 168              	.L11:
 169              		.loc 1 133 0 discriminator 1
 170 004c 0248     		ldr	r0, .L25+4
ARM GAS  /tmp/ccXTnCnI.s 			page 4


 171 004e FFF7FEFF 		bl	chDbgPanic
 172              	.LVL17:
 173 0052 DDE7     		b	.L12
 174              	.L26:
 175              		.align	2
 176              	.L25:
 177 0054 20000000 		.word	.LC2
 178 0058 10000000 		.word	.LC1
 179              		.cfi_endproc
 180              	.LFE9:
 181              		.size	chSemResetI, .-chSemResetI
 182 005c AFF30080 		.section	.text.chSemReset,"ax",%progbits
 183              		.align	2
 184              		.p2align 4,,15
 185              		.global	chSemReset
 186              		.thumb
 187              		.thumb_func
 188              		.type	chSemReset, %function
 189              	chSemReset:
 190              	.LFB8:
 191              		.loc 1 102 0
 192              		.cfi_startproc
 193              		@ args = 0, pretend = 0, frame = 0
 194              		@ frame_needed = 0, uses_anonymous_args = 0
 195              	.LVL18:
 196 0000 38B5     		push	{r3, r4, r5, lr}
 197              		.cfi_def_cfa_offset 16
 198              		.cfi_offset 3, -16
 199              		.cfi_offset 4, -12
 200              		.cfi_offset 5, -8
 201              		.cfi_offset 14, -4
 202              		.loc 1 102 0
 203 0002 0546     		mov	r5, r0
 204 0004 0C46     		mov	r4, r1
 205              	.LBB26:
 206              		.loc 1 104 0
 207 0006 2023     		movs	r3, #32
 208              	@ 104 "../../../os/kernel/src/chsem.c" 1
 209 0008 83F31188 		msr     BASEPRI, r3
 210              	@ 0 "" 2
 211              		.thumb
 212              	.LBE26:
 213 000c FFF7FEFF 		bl	dbg_check_lock
 214              	.LVL19:
 215              		.loc 1 105 0
 216 0010 2846     		mov	r0, r5
 217 0012 2146     		mov	r1, r4
 218 0014 FFF7FEFF 		bl	chSemResetI
 219              	.LVL20:
 220              		.loc 1 106 0
 221 0018 FFF7FEFF 		bl	chSchRescheduleS
 222              	.LVL21:
 223              		.loc 1 107 0
 224 001c FFF7FEFF 		bl	dbg_check_unlock
 225              	.LVL22:
 226              	.LBB27:
 227 0020 0023     		movs	r3, #0
ARM GAS  /tmp/ccXTnCnI.s 			page 5


 228              	@ 107 "../../../os/kernel/src/chsem.c" 1
 229 0022 83F31188 		msr     BASEPRI, r3
 230              	@ 0 "" 2
 231              		.thumb
 232 0026 38BD     		pop	{r3, r4, r5, pc}
 233              	.LBE27:
 234              		.cfi_endproc
 235              	.LFE8:
 236              		.size	chSemReset, .-chSemReset
 237 0028 AFF30080 		.section	.text.chSemWaitS,"ax",%progbits
 237      AFF30080 
 238              		.align	2
 239              		.p2align 4,,15
 240              		.global	chSemWaitS
 241              		.thumb
 242              		.thumb_func
 243              		.type	chSemWaitS, %function
 244              	chSemWaitS:
 245              	.LFB11:
 246              		.loc 1 178 0
 247              		.cfi_startproc
 248              		@ args = 0, pretend = 0, frame = 0
 249              		@ frame_needed = 0, uses_anonymous_args = 0
 250              	.LVL23:
 251 0000 38B5     		push	{r3, r4, r5, lr}
 252              		.cfi_def_cfa_offset 16
 253              		.cfi_offset 3, -16
 254              		.cfi_offset 4, -12
 255              		.cfi_offset 5, -8
 256              		.cfi_offset 14, -4
 257              		.loc 1 178 0
 258 0002 0446     		mov	r4, r0
 259              		.loc 1 180 0
 260 0004 FFF7FEFF 		bl	chDbgCheckClassS
 261              	.LVL24:
 262              		.loc 1 181 0
 263 0008 1CB3     		cbz	r4, .L36
 264              	.L29:
 265              		.loc 1 182 0
 266 000a A368     		ldr	r3, [r4, #8]
 267 000c 2268     		ldr	r2, [r4]
 268 000e 002B     		cmp	r3, #0
 269 0010 0BDB     		blt	.L30
 270              		.loc 1 182 0 is_stmt 0 discriminator 2
 271 0012 A242     		cmp	r2, r4
 272 0014 03D0     		beq	.L32
 273              	.L31:
 274              		.loc 1 182 0 discriminator 1
 275 0016 1148     		ldr	r0, .L38
 276 0018 FFF7FEFF 		bl	chDbgPanic
 277              	.LVL25:
 278 001c A368     		ldr	r3, [r4, #8]
 279              	.L32:
 280              		.loc 1 187 0 is_stmt 1
 281 001e 013B     		subs	r3, r3, #1
 282 0020 002B     		cmp	r3, #0
 283 0022 A360     		str	r3, [r4, #8]
ARM GAS  /tmp/ccXTnCnI.s 			page 6


 284 0024 07DB     		blt	.L37
 285              	.L34:
 286              		.loc 1 193 0
 287 0026 0020     		movs	r0, #0
 288              		.loc 1 194 0
 289 0028 38BD     		pop	{r3, r4, r5, pc}
 290              	.LVL26:
 291              	.L30:
 292              		.loc 1 182 0 discriminator 2
 293 002a A242     		cmp	r2, r4
 294 002c F3D0     		beq	.L31
 295              		.loc 1 187 0
 296 002e 013B     		subs	r3, r3, #1
 297 0030 002B     		cmp	r3, #0
 298 0032 A360     		str	r3, [r4, #8]
 299 0034 F7DA     		bge	.L34
 300              	.L37:
 301              		.loc 1 188 0
 302 0036 0A4D     		ldr	r5, .L38+4
 303 0038 AB69     		ldr	r3, [r5, #24]
 304 003a 9C62     		str	r4, [r3, #40]
 305              	.LVL27:
 306              	.LBB28:
 307              	.LBB29:
 308              		.loc 2 48 0
 309 003c 6268     		ldr	r2, [r4, #4]
 310 003e 5A60     		str	r2, [r3, #4]
 311              		.loc 2 47 0
 312 0040 1C60     		str	r4, [r3]
 313              	.LBE29:
 314              	.LBE28:
 315              		.loc 1 190 0
 316 0042 0320     		movs	r0, #3
 317              	.LBB31:
 318              	.LBB30:
 319              		.loc 2 49 0
 320 0044 6360     		str	r3, [r4, #4]
 321              	.LVL28:
 322 0046 1360     		str	r3, [r2]
 323              	.LVL29:
 324              	.LBE30:
 325              	.LBE31:
 326              		.loc 1 190 0
 327 0048 FFF7FEFF 		bl	chSchGoSleepS
 328              	.LVL30:
 329              		.loc 1 191 0
 330 004c AB69     		ldr	r3, [r5, #24]
 331 004e 986A     		ldr	r0, [r3, #40]
 332 0050 38BD     		pop	{r3, r4, r5, pc}
 333              	.LVL31:
 334              	.L36:
 335              		.loc 1 181 0 discriminator 1
 336 0052 0448     		ldr	r0, .L38+8
 337 0054 FFF7FEFF 		bl	chDbgPanic
 338              	.LVL32:
 339 0058 D7E7     		b	.L29
 340              	.L39:
ARM GAS  /tmp/ccXTnCnI.s 			page 7


 341 005a 00BF     		.align	2
 342              	.L38:
 343 005c 44000000 		.word	.LC4
 344 0060 00000000 		.word	rlist
 345 0064 34000000 		.word	.LC3
 346              		.cfi_endproc
 347              	.LFE11:
 348              		.size	chSemWaitS, .-chSemWaitS
 349 0068 AFF30080 		.section	.text.chSemWait,"ax",%progbits
 349      AFF30080 
 350              		.align	2
 351              		.p2align 4,,15
 352              		.global	chSemWait
 353              		.thumb
 354              		.thumb_func
 355              		.type	chSemWait, %function
 356              	chSemWait:
 357              	.LFB10:
 358              		.loc 1 157 0
 359              		.cfi_startproc
 360              		@ args = 0, pretend = 0, frame = 0
 361              		@ frame_needed = 0, uses_anonymous_args = 0
 362              	.LVL33:
 363 0000 10B5     		push	{r4, lr}
 364              		.cfi_def_cfa_offset 8
 365              		.cfi_offset 4, -8
 366              		.cfi_offset 14, -4
 367              	.LBB32:
 368              		.loc 1 160 0
 369 0002 2023     		movs	r3, #32
 370              	.LBE32:
 371              		.loc 1 157 0
 372 0004 0446     		mov	r4, r0
 373              	.LBB33:
 374              		.loc 1 160 0
 375              	@ 160 "../../../os/kernel/src/chsem.c" 1
 376 0006 83F31188 		msr     BASEPRI, r3
 377              	@ 0 "" 2
 378              		.thumb
 379              	.LBE33:
 380 000a FFF7FEFF 		bl	dbg_check_lock
 381              	.LVL34:
 382              		.loc 1 161 0
 383 000e 2046     		mov	r0, r4
 384 0010 FFF7FEFF 		bl	chSemWaitS
 385              	.LVL35:
 386 0014 0446     		mov	r4, r0
 387              	.LVL36:
 388              		.loc 1 162 0
 389 0016 FFF7FEFF 		bl	dbg_check_unlock
 390              	.LVL37:
 391              	.LBB34:
 392 001a 0023     		movs	r3, #0
 393              	@ 162 "../../../os/kernel/src/chsem.c" 1
 394 001c 83F31188 		msr     BASEPRI, r3
 395              	@ 0 "" 2
 396              		.thumb
ARM GAS  /tmp/ccXTnCnI.s 			page 8


 397              	.LBE34:
 398              		.loc 1 164 0
 399 0020 2046     		mov	r0, r4
 400 0022 10BD     		pop	{r4, pc}
 401              		.cfi_endproc
 402              	.LFE10:
 403              		.size	chSemWait, .-chSemWait
 404 0024 AFF30080 		.section	.text.chSemWaitTimeoutS,"ax",%progbits
 404      AFF30080 
 404      AFF30080 
 405              		.align	2
 406              		.p2align 4,,15
 407              		.global	chSemWaitTimeoutS
 408              		.thumb
 409              		.thumb_func
 410              		.type	chSemWaitTimeoutS, %function
 411              	chSemWaitTimeoutS:
 412              	.LFB13:
 413              		.loc 1 243 0
 414              		.cfi_startproc
 415              		@ args = 0, pretend = 0, frame = 0
 416              		@ frame_needed = 0, uses_anonymous_args = 0
 417              	.LVL38:
 418 0000 38B5     		push	{r3, r4, r5, lr}
 419              		.cfi_def_cfa_offset 16
 420              		.cfi_offset 3, -16
 421              		.cfi_offset 4, -12
 422              		.cfi_offset 5, -8
 423              		.cfi_offset 14, -4
 424              		.loc 1 243 0
 425 0002 0446     		mov	r4, r0
 426 0004 0D46     		mov	r5, r1
 427              		.loc 1 245 0
 428 0006 FFF7FEFF 		bl	chDbgCheckClassS
 429              	.LVL39:
 430              		.loc 1 246 0
 431 000a 24B3     		cbz	r4, .L50
 432              	.L42:
 433              		.loc 1 247 0
 434 000c A368     		ldr	r3, [r4, #8]
 435 000e 2268     		ldr	r2, [r4]
 436 0010 002B     		cmp	r3, #0
 437 0012 0BDB     		blt	.L43
 438              		.loc 1 247 0 is_stmt 0 discriminator 2
 439 0014 A242     		cmp	r2, r4
 440 0016 03D0     		beq	.L45
 441              	.L44:
 442              		.loc 1 247 0 discriminator 1
 443 0018 1348     		ldr	r0, .L53
 444 001a FFF7FEFF 		bl	chDbgPanic
 445              	.LVL40:
 446 001e A368     		ldr	r3, [r4, #8]
 447              	.L45:
 448              		.loc 1 252 0 is_stmt 1
 449 0020 5A1E     		subs	r2, r3, #1
 450 0022 002A     		cmp	r2, #0
 451 0024 A260     		str	r2, [r4, #8]
ARM GAS  /tmp/ccXTnCnI.s 			page 9


 452 0026 07DB     		blt	.L51
 453              	.L48:
 454              		.loc 1 261 0
 455 0028 0020     		movs	r0, #0
 456              		.loc 1 262 0
 457 002a 38BD     		pop	{r3, r4, r5, pc}
 458              	.LVL41:
 459              	.L43:
 460              		.loc 1 247 0 discriminator 2
 461 002c A242     		cmp	r2, r4
 462 002e F3D0     		beq	.L44
 463              		.loc 1 252 0
 464 0030 5A1E     		subs	r2, r3, #1
 465 0032 002A     		cmp	r2, #0
 466 0034 A260     		str	r2, [r4, #8]
 467 0036 F7DA     		bge	.L48
 468              	.L51:
 469              		.loc 1 253 0
 470 0038 8DB1     		cbz	r5, .L52
 471              		.loc 1 257 0
 472 003a 0C4B     		ldr	r3, .L53+4
 473 003c 9B69     		ldr	r3, [r3, #24]
 474 003e 9C62     		str	r4, [r3, #40]
 475              	.LVL42:
 476              	.LBB35:
 477              	.LBB36:
 478              		.loc 2 48 0
 479 0040 6268     		ldr	r2, [r4, #4]
 480 0042 5A60     		str	r2, [r3, #4]
 481              		.loc 2 47 0
 482 0044 1C60     		str	r4, [r3]
 483              	.LBE36:
 484              	.LBE35:
 485              		.loc 1 259 0
 486 0046 2946     		mov	r1, r5
 487              	.LBB39:
 488              	.LBB37:
 489              		.loc 2 49 0
 490 0048 6360     		str	r3, [r4, #4]
 491              	.LVL43:
 492              	.LBE37:
 493              	.LBE39:
 494              		.loc 1 259 0
 495 004a 0320     		movs	r0, #3
 496              	.LBB40:
 497              	.LBB38:
 498              		.loc 2 49 0
 499 004c 1360     		str	r3, [r2]
 500              	.LVL44:
 501              	.LBE38:
 502              	.LBE40:
 503              		.loc 1 262 0
 504 004e BDE83840 		pop	{r3, r4, r5, lr}
 505              	.LVL45:
 506              		.loc 1 259 0
 507 0052 FFF7FEBF 		b	chSchGoSleepTimeoutS
 508              	.LVL46:
ARM GAS  /tmp/ccXTnCnI.s 			page 10


 509              	.L50:
 510              		.loc 1 246 0 discriminator 1
 511 0056 0648     		ldr	r0, .L53+8
 512 0058 FFF7FEFF 		bl	chDbgPanic
 513              	.LVL47:
 514 005c D6E7     		b	.L42
 515              	.L52:
 516              		.loc 1 254 0
 517 005e A360     		str	r3, [r4, #8]
 518              		.loc 1 255 0
 519 0060 4FF0FF30 		mov	r0, #-1
 520 0064 38BD     		pop	{r3, r4, r5, pc}
 521              	.LVL48:
 522              	.L54:
 523 0066 00BF     		.align	2
 524              	.L53:
 525 0068 70000000 		.word	.LC6
 526 006c 00000000 		.word	rlist
 527 0070 58000000 		.word	.LC5
 528              		.cfi_endproc
 529              	.LFE13:
 530              		.size	chSemWaitTimeoutS, .-chSemWaitTimeoutS
 531 0074 AFF30080 		.section	.text.chSemWaitTimeout,"ax",%progbits
 531      AFF30080 
 531      AFF30080 
 532              		.align	2
 533              		.p2align 4,,15
 534              		.global	chSemWaitTimeout
 535              		.thumb
 536              		.thumb_func
 537              		.type	chSemWaitTimeout, %function
 538              	chSemWaitTimeout:
 539              	.LFB12:
 540              		.loc 1 215 0
 541              		.cfi_startproc
 542              		@ args = 0, pretend = 0, frame = 0
 543              		@ frame_needed = 0, uses_anonymous_args = 0
 544              	.LVL49:
 545 0000 38B5     		push	{r3, r4, r5, lr}
 546              		.cfi_def_cfa_offset 16
 547              		.cfi_offset 3, -16
 548              		.cfi_offset 4, -12
 549              		.cfi_offset 5, -8
 550              		.cfi_offset 14, -4
 551              		.loc 1 215 0
 552 0002 0546     		mov	r5, r0
 553 0004 0C46     		mov	r4, r1
 554              	.LBB41:
 555              		.loc 1 218 0
 556 0006 2023     		movs	r3, #32
 557              	@ 218 "../../../os/kernel/src/chsem.c" 1
 558 0008 83F31188 		msr     BASEPRI, r3
 559              	@ 0 "" 2
 560              		.thumb
 561              	.LBE41:
 562 000c FFF7FEFF 		bl	dbg_check_lock
 563              	.LVL50:
ARM GAS  /tmp/ccXTnCnI.s 			page 11


 564              		.loc 1 219 0
 565 0010 2146     		mov	r1, r4
 566 0012 2846     		mov	r0, r5
 567 0014 FFF7FEFF 		bl	chSemWaitTimeoutS
 568              	.LVL51:
 569 0018 0446     		mov	r4, r0
 570              	.LVL52:
 571              		.loc 1 220 0
 572 001a FFF7FEFF 		bl	dbg_check_unlock
 573              	.LVL53:
 574              	.LBB42:
 575 001e 0023     		movs	r3, #0
 576              	@ 220 "../../../os/kernel/src/chsem.c" 1
 577 0020 83F31188 		msr     BASEPRI, r3
 578              	@ 0 "" 2
 579              		.thumb
 580              	.LBE42:
 581              		.loc 1 222 0
 582 0024 2046     		mov	r0, r4
 583 0026 38BD     		pop	{r3, r4, r5, pc}
 584              		.cfi_endproc
 585              	.LFE12:
 586              		.size	chSemWaitTimeout, .-chSemWaitTimeout
 587 0028 AFF30080 		.section	.text.chSemSignal,"ax",%progbits
 587      AFF30080 
 588              		.align	2
 589              		.p2align 4,,15
 590              		.global	chSemSignal
 591              		.thumb
 592              		.thumb_func
 593              		.type	chSemSignal, %function
 594              	chSemSignal:
 595              	.LFB14:
 596              		.loc 1 271 0
 597              		.cfi_startproc
 598              		@ args = 0, pretend = 0, frame = 0
 599              		@ frame_needed = 0, uses_anonymous_args = 0
 600              	.LVL54:
 601 0000 10B5     		push	{r4, lr}
 602              		.cfi_def_cfa_offset 8
 603              		.cfi_offset 4, -8
 604              		.cfi_offset 14, -4
 605              		.loc 1 273 0
 606 0002 0446     		mov	r4, r0
 607 0004 40B3     		cbz	r0, .L62
 608              	.LVL55:
 609              	.L57:
 610              		.loc 1 274 0
 611 0006 A368     		ldr	r3, [r4, #8]
 612 0008 002B     		cmp	r3, #0
 613 000a 2368     		ldr	r3, [r4]
 614 000c 14DB     		blt	.L58
 615              		.loc 1 274 0 is_stmt 0 discriminator 2
 616 000e A342     		cmp	r3, r4
 617 0010 02D0     		beq	.L60
 618              	.L59:
 619              		.loc 1 274 0 discriminator 1
ARM GAS  /tmp/ccXTnCnI.s 			page 12


 620 0012 1348     		ldr	r0, .L64
 621 0014 FFF7FEFF 		bl	chDbgPanic
 622              	.LVL56:
 623              	.L60:
 624              	.LBB43:
 625              		.loc 1 279 0 is_stmt 1
 626 0018 2023     		movs	r3, #32
 627              	@ 279 "../../../os/kernel/src/chsem.c" 1
 628 001a 83F31188 		msr     BASEPRI, r3
 629              	@ 0 "" 2
 630              		.thumb
 631              	.LBE43:
 632 001e FFF7FEFF 		bl	dbg_check_lock
 633              	.LVL57:
 634              		.loc 1 280 0
 635 0022 A368     		ldr	r3, [r4, #8]
 636 0024 0133     		adds	r3, r3, #1
 637 0026 002B     		cmp	r3, #0
 638 0028 A360     		str	r3, [r4, #8]
 639 002a 08DD     		ble	.L63
 640              		.loc 1 282 0
 641 002c FFF7FEFF 		bl	dbg_check_unlock
 642              	.LVL58:
 643              	.LBB44:
 644 0030 0023     		movs	r3, #0
 645              	@ 282 "../../../os/kernel/src/chsem.c" 1
 646 0032 83F31188 		msr     BASEPRI, r3
 647              	@ 0 "" 2
 648              		.thumb
 649 0036 10BD     		pop	{r4, pc}
 650              	.LVL59:
 651              	.L58:
 652              	.LBE44:
 653              		.loc 1 274 0 discriminator 2
 654 0038 A342     		cmp	r3, r4
 655 003a EDD1     		bne	.L60
 656 003c E9E7     		b	.L59
 657              	.L63:
 658              	.LVL60:
 659              	.LBB45:
 660              	.LBB46:
 661              		.loc 2 53 0
 662 003e 2068     		ldr	r0, [r4]
 663              	.LVL61:
 664              		.loc 2 55 0
 665 0040 0368     		ldr	r3, [r0]
 666 0042 2360     		str	r3, [r4]
 667              	.LBE46:
 668              	.LBE45:
 669              		.loc 1 281 0
 670 0044 0021     		movs	r1, #0
 671              	.LBB48:
 672              	.LBB47:
 673              		.loc 2 55 0
 674 0046 5C60     		str	r4, [r3, #4]
 675              	.LBE47:
 676              	.LBE48:
ARM GAS  /tmp/ccXTnCnI.s 			page 13


 677              		.loc 1 281 0
 678 0048 FFF7FEFF 		bl	chSchWakeupS
 679              	.LVL62:
 680              		.loc 1 282 0
 681 004c FFF7FEFF 		bl	dbg_check_unlock
 682              	.LVL63:
 683              	.LBB49:
 684 0050 0023     		movs	r3, #0
 685              	@ 282 "../../../os/kernel/src/chsem.c" 1
 686 0052 83F31188 		msr     BASEPRI, r3
 687              	@ 0 "" 2
 688              		.thumb
 689 0056 10BD     		pop	{r4, pc}
 690              	.LVL64:
 691              	.L62:
 692              	.LBE49:
 693              		.loc 1 273 0 discriminator 1
 694 0058 0248     		ldr	r0, .L64+4
 695              	.LVL65:
 696 005a FFF7FEFF 		bl	chDbgPanic
 697              	.LVL66:
 698 005e D2E7     		b	.L57
 699              	.L65:
 700              		.align	2
 701              	.L64:
 702 0060 98000000 		.word	.LC8
 703 0064 88000000 		.word	.LC7
 704              		.cfi_endproc
 705              	.LFE14:
 706              		.size	chSemSignal, .-chSemSignal
 707 0068 AFF30080 		.section	.text.chSemSignalI,"ax",%progbits
 707      AFF30080 
 708              		.align	2
 709              		.p2align 4,,15
 710              		.global	chSemSignalI
 711              		.thumb
 712              		.thumb_func
 713              		.type	chSemSignalI, %function
 714              	chSemSignalI:
 715              	.LFB15:
 716              		.loc 1 296 0
 717              		.cfi_startproc
 718              		@ args = 0, pretend = 0, frame = 0
 719              		@ frame_needed = 0, uses_anonymous_args = 0
 720              	.LVL67:
 721 0000 10B5     		push	{r4, lr}
 722              		.cfi_def_cfa_offset 8
 723              		.cfi_offset 4, -8
 724              		.cfi_offset 14, -4
 725              		.loc 1 296 0
 726 0002 0446     		mov	r4, r0
 727              		.loc 1 298 0
 728 0004 FFF7FEFF 		bl	chDbgCheckClassI
 729              	.LVL68:
 730              		.loc 1 299 0
 731 0008 FCB1     		cbz	r4, .L73
 732              	.L67:
ARM GAS  /tmp/ccXTnCnI.s 			page 14


 733              		.loc 1 300 0
 734 000a A368     		ldr	r3, [r4, #8]
 735 000c 2268     		ldr	r2, [r4]
 736 000e 002B     		cmp	r3, #0
 737 0010 0ADB     		blt	.L68
 738              		.loc 1 300 0 is_stmt 0 discriminator 2
 739 0012 A242     		cmp	r2, r4
 740 0014 03D0     		beq	.L70
 741              	.L69:
 742              		.loc 1 300 0 discriminator 1
 743 0016 0F48     		ldr	r0, .L75
 744 0018 FFF7FEFF 		bl	chDbgPanic
 745              	.LVL69:
 746 001c A368     		ldr	r3, [r4, #8]
 747              	.L70:
 748              		.loc 1 305 0 is_stmt 1
 749 001e 0133     		adds	r3, r3, #1
 750 0020 002B     		cmp	r3, #0
 751 0022 A360     		str	r3, [r4, #8]
 752 0024 06DD     		ble	.L74
 753              	.L66:
 754 0026 10BD     		pop	{r4, pc}
 755              	.LVL70:
 756              	.L68:
 757              		.loc 1 300 0 discriminator 2
 758 0028 A242     		cmp	r2, r4
 759 002a F4D0     		beq	.L69
 760              		.loc 1 305 0
 761 002c 0133     		adds	r3, r3, #1
 762 002e 002B     		cmp	r3, #0
 763 0030 A360     		str	r3, [r4, #8]
 764 0032 F8DC     		bgt	.L66
 765              	.L74:
 766              	.LVL71:
 767              	.LBB50:
 768              	.LBB51:
 769              	.LBB52:
 770              		.loc 2 53 0
 771 0034 2368     		ldr	r3, [r4]
 772              	.LVL72:
 773              		.loc 2 55 0
 774 0036 1A68     		ldr	r2, [r3]
 775 0038 2260     		str	r2, [r4]
 776              	.LBE52:
 777              	.LBE51:
 778              		.loc 1 309 0
 779 003a 0021     		movs	r1, #0
 780              	.LBB54:
 781              	.LBB53:
 782              		.loc 2 55 0
 783 003c 5460     		str	r4, [r2, #4]
 784              	.LBE53:
 785              	.LBE54:
 786              		.loc 1 309 0
 787 003e 9962     		str	r1, [r3, #40]
 788              		.loc 1 310 0
 789 0040 1846     		mov	r0, r3
ARM GAS  /tmp/ccXTnCnI.s 			page 15


 790              	.LBE50:
 791              		.loc 1 312 0
 792 0042 BDE81040 		pop	{r4, lr}
 793              	.LVL73:
 794              	.LBB55:
 795              		.loc 1 310 0
 796 0046 FFF7FEBF 		b	chSchReadyI
 797              	.LVL74:
 798              	.L73:
 799              	.LBE55:
 800              		.loc 1 299 0 discriminator 1
 801 004a 0348     		ldr	r0, .L75+4
 802 004c FFF7FEFF 		bl	chDbgPanic
 803              	.LVL75:
 804 0050 DBE7     		b	.L67
 805              	.L76:
 806 0052 00BF     		.align	2
 807              	.L75:
 808 0054 C0000000 		.word	.LC10
 809 0058 AC000000 		.word	.LC9
 810              		.cfi_endproc
 811              	.LFE15:
 812              		.size	chSemSignalI, .-chSemSignalI
 813 005c AFF30080 		.section	.text.chSemAddCounterI,"ax",%progbits
 814              		.align	2
 815              		.p2align 4,,15
 816              		.global	chSemAddCounterI
 817              		.thumb
 818              		.thumb_func
 819              		.type	chSemAddCounterI, %function
 820              	chSemAddCounterI:
 821              	.LFB16:
 822              		.loc 1 327 0
 823              		.cfi_startproc
 824              		@ args = 0, pretend = 0, frame = 0
 825              		@ frame_needed = 0, uses_anonymous_args = 0
 826              	.LVL76:
 827 0000 70B5     		push	{r4, r5, r6, lr}
 828              		.cfi_def_cfa_offset 16
 829              		.cfi_offset 4, -16
 830              		.cfi_offset 5, -12
 831              		.cfi_offset 6, -8
 832              		.cfi_offset 14, -4
 833              		.loc 1 327 0
 834 0002 0546     		mov	r5, r0
 835 0004 0C46     		mov	r4, r1
 836              		.loc 1 329 0
 837 0006 FFF7FEFF 		bl	chDbgCheckClassI
 838              	.LVL77:
 839              		.loc 1 330 0
 840 000a 15B3     		cbz	r5, .L78
 841              		.loc 1 330 0 is_stmt 0 discriminator 2
 842 000c 002C     		cmp	r4, #0
 843 000e 20DD     		ble	.L78
 844              	.L79:
 845              		.loc 1 331 0 is_stmt 1
 846 0010 AB68     		ldr	r3, [r5, #8]
ARM GAS  /tmp/ccXTnCnI.s 			page 16


 847 0012 002B     		cmp	r3, #0
 848 0014 2B68     		ldr	r3, [r5]
 849 0016 19DB     		blt	.L80
 850              		.loc 1 331 0 is_stmt 0 discriminator 2
 851 0018 AB42     		cmp	r3, r5
 852 001a 02D0     		beq	.L82
 853              	.L81:
 854              		.loc 1 331 0 discriminator 1
 855 001c 0F48     		ldr	r0, .L93
 856 001e FFF7FEFF 		bl	chDbgPanic
 857              	.LVL78:
 858              	.L82:
 859              		.loc 1 336 0 is_stmt 1 discriminator 1
 860 0022 002C     		cmp	r4, #0
 861 0024 11DD     		ble	.L77
 862              		.loc 1 338 0
 863 0026 0026     		movs	r6, #0
 864 0028 01E0     		b	.L86
 865              	.L84:
 866              	.LVL79:
 867              		.loc 1 336 0
 868 002a 013C     		subs	r4, r4, #1
 869              	.LVL80:
 870 002c 0DD0     		beq	.L77
 871              	.LVL81:
 872              	.L86:
 873              		.loc 1 337 0
 874 002e AB68     		ldr	r3, [r5, #8]
 875 0030 0133     		adds	r3, r3, #1
 876 0032 002B     		cmp	r3, #0
 877 0034 AB60     		str	r3, [r5, #8]
 878 0036 F8DC     		bgt	.L84
 879              	.LVL82:
 880              	.LBB56:
 881              	.LBB57:
 882              		.loc 2 53 0
 883 0038 2868     		ldr	r0, [r5]
 884              	.LVL83:
 885              		.loc 2 55 0
 886 003a 0368     		ldr	r3, [r0]
 887 003c 2B60     		str	r3, [r5]
 888 003e 5D60     		str	r5, [r3, #4]
 889              	.LBE57:
 890              	.LBE56:
 891              		.loc 1 338 0
 892 0040 FFF7FEFF 		bl	chSchReadyI
 893              	.LVL84:
 894              		.loc 1 336 0
 895 0044 013C     		subs	r4, r4, #1
 896              	.LVL85:
 897              		.loc 1 338 0
 898 0046 8662     		str	r6, [r0, #40]
 899              	.LVL86:
 900              		.loc 1 336 0
 901 0048 F1D1     		bne	.L86
 902              	.LVL87:
 903              	.L77:
ARM GAS  /tmp/ccXTnCnI.s 			page 17


 904 004a 70BD     		pop	{r4, r5, r6, pc}
 905              	.LVL88:
 906              	.L80:
 907              		.loc 1 331 0 discriminator 2
 908 004c AB42     		cmp	r3, r5
 909 004e E8D1     		bne	.L82
 910 0050 E4E7     		b	.L81
 911              	.L78:
 912              		.loc 1 330 0 discriminator 1
 913 0052 0348     		ldr	r0, .L93+4
 914 0054 FFF7FEFF 		bl	chDbgPanic
 915              	.LVL89:
 916 0058 DAE7     		b	.L79
 917              	.L94:
 918 005a 00BF     		.align	2
 919              	.L93:
 920 005c EC000000 		.word	.LC12
 921 0060 D4000000 		.word	.LC11
 922              		.cfi_endproc
 923              	.LFE16:
 924              		.size	chSemAddCounterI, .-chSemAddCounterI
 925 0064 AFF30080 		.section	.text.chSemSignalWait,"ax",%progbits
 925      AFF30080 
 925      AFF30080 
 926              		.align	2
 927              		.p2align 4,,15
 928              		.global	chSemSignalWait
 929              		.thumb
 930              		.thumb_func
 931              		.type	chSemSignalWait, %function
 932              	chSemSignalWait:
 933              	.LFB17:
 934              		.loc 1 359 0
 935              		.cfi_startproc
 936              		@ args = 0, pretend = 0, frame = 0
 937              		@ frame_needed = 0, uses_anonymous_args = 0
 938              	.LVL90:
 939 0000 38B5     		push	{r3, r4, r5, lr}
 940              		.cfi_def_cfa_offset 16
 941              		.cfi_offset 3, -16
 942              		.cfi_offset 4, -12
 943              		.cfi_offset 5, -8
 944              		.cfi_offset 14, -4
 945              		.loc 1 362 0
 946 0002 0546     		mov	r5, r0
 947              		.loc 1 359 0
 948 0004 0C46     		mov	r4, r1
 949              		.loc 1 362 0
 950 0006 0028     		cmp	r0, #0
 951 0008 35D0     		beq	.L96
 952              		.loc 1 362 0 is_stmt 0 discriminator 2
 953 000a 0029     		cmp	r1, #0
 954 000c 33D0     		beq	.L96
 955              	.LVL91:
 956              	.L97:
 957              		.loc 1 363 0 is_stmt 1
 958 000e AB68     		ldr	r3, [r5, #8]
ARM GAS  /tmp/ccXTnCnI.s 			page 18


 959 0010 002B     		cmp	r3, #0
 960 0012 2B68     		ldr	r3, [r5]
 961 0014 26DB     		blt	.L98
 962              		.loc 1 363 0 is_stmt 0 discriminator 2
 963 0016 AB42     		cmp	r3, r5
 964 0018 02D0     		beq	.L100
 965              	.L99:
 966              		.loc 1 363 0 discriminator 1
 967 001a 2448     		ldr	r0, .L114
 968 001c FFF7FEFF 		bl	chDbgPanic
 969              	.LVL92:
 970              	.L100:
 971              		.loc 1 367 0 is_stmt 1
 972 0020 A368     		ldr	r3, [r4, #8]
 973 0022 002B     		cmp	r3, #0
 974 0024 2368     		ldr	r3, [r4]
 975 0026 23DB     		blt	.L101
 976              	.L113:
 977              		.loc 1 367 0 is_stmt 0 discriminator 2
 978 0028 A342     		cmp	r3, r4
 979 002a 02D0     		beq	.L103
 980              	.L102:
 981              		.loc 1 367 0 discriminator 1
 982 002c 2048     		ldr	r0, .L114+4
 983 002e FFF7FEFF 		bl	chDbgPanic
 984              	.LVL93:
 985              	.L103:
 986              	.LBB58:
 987              		.loc 1 372 0 is_stmt 1
 988 0032 2023     		movs	r3, #32
 989              	@ 372 "../../../os/kernel/src/chsem.c" 1
 990 0034 83F31188 		msr     BASEPRI, r3
 991              	@ 0 "" 2
 992              		.thumb
 993              	.LBE58:
 994 0038 FFF7FEFF 		bl	dbg_check_lock
 995              	.LVL94:
 996              		.loc 1 373 0
 997 003c AB68     		ldr	r3, [r5, #8]
 998 003e 0133     		adds	r3, r3, #1
 999 0040 002B     		cmp	r3, #0
 1000 0042 AB60     		str	r3, [r5, #8]
 1001 0044 28DD     		ble	.L111
 1002              	.L104:
 1003              		.loc 1 375 0
 1004 0046 A368     		ldr	r3, [r4, #8]
 1005 0048 013B     		subs	r3, r3, #1
 1006 004a 002B     		cmp	r3, #0
 1007 004c A360     		str	r3, [r4, #8]
 1008 004e 16DB     		blt	.L112
 1009              		.loc 1 383 0
 1010 0050 FFF7FEFF 		bl	chSchRescheduleS
 1011              	.LVL95:
 1012              		.loc 1 384 0
 1013 0054 0024     		movs	r4, #0
 1014              	.LVL96:
 1015              	.L106:
ARM GAS  /tmp/ccXTnCnI.s 			page 19


 1016              		.loc 1 386 0
 1017 0056 FFF7FEFF 		bl	dbg_check_unlock
 1018              	.LVL97:
 1019              	.LBB59:
 1020 005a 0023     		movs	r3, #0
 1021              	@ 386 "../../../os/kernel/src/chsem.c" 1
 1022 005c 83F31188 		msr     BASEPRI, r3
 1023              	@ 0 "" 2
 1024              		.thumb
 1025              	.LBE59:
 1026              		.loc 1 388 0
 1027 0060 2046     		mov	r0, r4
 1028 0062 38BD     		pop	{r3, r4, r5, pc}
 1029              	.LVL98:
 1030              	.L98:
 1031              		.loc 1 363 0 discriminator 2
 1032 0064 AB42     		cmp	r3, r5
 1033 0066 D8D0     		beq	.L99
 1034              		.loc 1 367 0
 1035 0068 A368     		ldr	r3, [r4, #8]
 1036 006a 002B     		cmp	r3, #0
 1037 006c 2368     		ldr	r3, [r4]
 1038 006e DBDA     		bge	.L113
 1039              	.L101:
 1040              		.loc 1 367 0 is_stmt 0 discriminator 2
 1041 0070 A342     		cmp	r3, r4
 1042 0072 DED1     		bne	.L103
 1043 0074 DAE7     		b	.L102
 1044              	.LVL99:
 1045              	.L96:
 1046              		.loc 1 362 0 is_stmt 1 discriminator 1
 1047 0076 0F48     		ldr	r0, .L114+8
 1048              	.LVL100:
 1049 0078 FFF7FEFF 		bl	chDbgPanic
 1050              	.LVL101:
 1051 007c C7E7     		b	.L97
 1052              	.L112:
 1053              	.LBB60:
 1054              		.loc 1 376 0
 1055 007e 0E4A     		ldr	r2, .L114+12
 1056              	.LBB61:
 1057              	.LBB62:
 1058              		.loc 2 48 0
 1059 0080 6368     		ldr	r3, [r4, #4]
 1060              	.LBE62:
 1061              	.LBE61:
 1062              		.loc 1 376 0
 1063 0082 9569     		ldr	r5, [r2, #24]
 1064              	.LVL102:
 1065              		.loc 1 379 0
 1066 0084 0320     		movs	r0, #3
 1067              	.LBB64:
 1068              	.LBB63:
 1069              		.loc 2 47 0
 1070 0086 2C60     		str	r4, [r5]
 1071              		.loc 2 48 0
 1072 0088 6B60     		str	r3, [r5, #4]
ARM GAS  /tmp/ccXTnCnI.s 			page 20


 1073              		.loc 2 49 0
 1074 008a 6560     		str	r5, [r4, #4]
 1075 008c 1D60     		str	r5, [r3]
 1076              	.LBE63:
 1077              	.LBE64:
 1078              		.loc 1 378 0
 1079 008e AC62     		str	r4, [r5, #40]
 1080              		.loc 1 379 0
 1081 0090 FFF7FEFF 		bl	chSchGoSleepS
 1082              	.LVL103:
 1083              		.loc 1 380 0
 1084 0094 AC6A     		ldr	r4, [r5, #40]
 1085              	.LVL104:
 1086              	.LBE60:
 1087 0096 DEE7     		b	.L106
 1088              	.LVL105:
 1089              	.L111:
 1090              	.LBB65:
 1091              	.LBB66:
 1092              		.loc 2 53 0
 1093 0098 2868     		ldr	r0, [r5]
 1094              	.LVL106:
 1095              		.loc 2 55 0
 1096 009a 0368     		ldr	r3, [r0]
 1097 009c 2B60     		str	r3, [r5]
 1098 009e 5D60     		str	r5, [r3, #4]
 1099              	.LBE66:
 1100              	.LBE65:
 1101              		.loc 1 374 0
 1102 00a0 FFF7FEFF 		bl	chSchReadyI
 1103              	.LVL107:
 1104 00a4 0023     		movs	r3, #0
 1105 00a6 8362     		str	r3, [r0, #40]
 1106 00a8 CDE7     		b	.L104
 1107              	.L115:
 1108 00aa 00BF     		.align	2
 1109              	.L114:
 1110 00ac 18010000 		.word	.LC14
 1111 00b0 30010000 		.word	.LC15
 1112 00b4 04010000 		.word	.LC13
 1113 00b8 00000000 		.word	rlist
 1114              		.cfi_endproc
 1115              	.LFE17:
 1116              		.size	chSemSignalWait, .-chSemSignalWait
 1117 00bc AFF30080 		.section	.rodata.str1.4,"aMS",%progbits,1
 1118              		.align	2
 1119              	.LC0:
 1120 0000 22636853 		.ascii	"\"chSemInit\"()\000"
 1120      656D496E 
 1120      69742228 
 1120      2900
 1121 000e 0000     		.space	2
 1122              	.LC1:
 1123 0010 22636853 		.ascii	"\"chSemResetI\"()\000"
 1123      656D5265 
 1123      73657449 
 1123      22282900 
ARM GAS  /tmp/ccXTnCnI.s 			page 21


 1124              	.LC2:
 1125 0020 63685365 		.ascii	"chSemResetI(), #1\000"
 1125      6D526573 
 1125      65744928 
 1125      292C2023 
 1125      3100
 1126 0032 0000     		.space	2
 1127              	.LC3:
 1128 0034 22636853 		.ascii	"\"chSemWaitS\"()\000"
 1128      656D5761 
 1128      69745322 
 1128      282900
 1129 0043 00       		.space	1
 1130              	.LC4:
 1131 0044 63685365 		.ascii	"chSemWaitS(), #1\000"
 1131      6D576169 
 1131      74532829 
 1131      2C202331 
 1131      00
 1132 0055 000000   		.space	3
 1133              	.LC5:
 1134 0058 22636853 		.ascii	"\"chSemWaitTimeoutS\"()\000"
 1134      656D5761 
 1134      69745469 
 1134      6D656F75 
 1134      74532228 
 1135 006e 0000     		.space	2
 1136              	.LC6:
 1137 0070 63685365 		.ascii	"chSemWaitTimeoutS(), #1\000"
 1137      6D576169 
 1137      7454696D 
 1137      656F7574 
 1137      5328292C 
 1138              	.LC7:
 1139 0088 22636853 		.ascii	"\"chSemSignal\"()\000"
 1139      656D5369 
 1139      676E616C 
 1139      22282900 
 1140              	.LC8:
 1141 0098 63685365 		.ascii	"chSemSignal(), #1\000"
 1141      6D536967 
 1141      6E616C28 
 1141      292C2023 
 1141      3100
 1142 00aa 0000     		.space	2
 1143              	.LC9:
 1144 00ac 22636853 		.ascii	"\"chSemSignalI\"()\000"
 1144      656D5369 
 1144      676E616C 
 1144      49222829 
 1144      00
 1145 00bd 000000   		.space	3
 1146              	.LC10:
 1147 00c0 63685365 		.ascii	"chSemSignalI(), #1\000"
 1147      6D536967 
 1147      6E616C49 
 1147      28292C20 
ARM GAS  /tmp/ccXTnCnI.s 			page 22


 1147      233100
 1148 00d3 00       		.space	1
 1149              	.LC11:
 1150 00d4 22636853 		.ascii	"\"chSemAddCounterI\"()\000"
 1150      656D4164 
 1150      64436F75 
 1150      6E746572 
 1150      49222829 
 1151 00e9 000000   		.space	3
 1152              	.LC12:
 1153 00ec 63685365 		.ascii	"chSemAddCounterI(), #1\000"
 1153      6D416464 
 1153      436F756E 
 1153      74657249 
 1153      28292C20 
 1154 0103 00       		.space	1
 1155              	.LC13:
 1156 0104 22636853 		.ascii	"\"chSemSignalWait\"()\000"
 1156      656D5369 
 1156      676E616C 
 1156      57616974 
 1156      22282900 
 1157              	.LC14:
 1158 0118 63685365 		.ascii	"chSemSignalWait(), #1\000"
 1158      6D536967 
 1158      6E616C57 
 1158      61697428 
 1158      292C2023 
 1159 012e 0000     		.space	2
 1160              	.LC15:
 1161 0130 63685365 		.ascii	"chSemSignalWait(), #2\000"
 1161      6D536967 
 1161      6E616C57 
 1161      61697428 
 1161      292C2023 
 1162 0146 0000     		.text
 1163              	.Letext0:
 1164              		.file 3 "/usr/local/csl/gcc-arm-none-eabi-4_8-2013q4/arm-none-eabi/include/stdint.h"
 1165              		.file 4 "../../../os/ports/GCC/ARMCMx/chtypes.h"
 1166              		.file 5 "../../../os/kernel/include/chlists.h"
 1167              		.file 6 "../../../os/kernel/include/chthreads.h"
 1168              		.file 7 "../../../os/ports/GCC/ARMCMx/chcore_v7m.h"
 1169              		.file 8 "../../../os/kernel/include/chschd.h"
 1170              		.file 9 "../../../os/kernel/include/chsem.h"
 1171              		.file 10 "../../../os/kernel/include/chmtx.h"
 1172              		.file 11 "../../../os/kernel/include/chdebug.h"