ARM GAS  /tmp/ccsjsM8c.s 			page 1


   1              		.syntax unified
   2              		.cpu cortex-m4
   3              		.fpu softvfp
   4              		.eabi_attribute 20, 1
   5              		.eabi_attribute 21, 1
   6              		.eabi_attribute 23, 3
   7              		.eabi_attribute 24, 1
   8              		.eabi_attribute 25, 1
   9              		.eabi_attribute 26, 1
  10              		.eabi_attribute 30, 2
  11              		.eabi_attribute 34, 1
  12              		.eabi_attribute 18, 4
  13              		.thumb
  14              		.file	"chsys.c"
  15              		.text
  16              	.Ltext0:
  17              		.cfi_sections	.debug_frame
  18              		.section	.text._idle_thread,"ax",%progbits
  19              		.align	2
  20              		.p2align 4,,15
  21              		.global	_idle_thread
  22              		.thumb
  23              		.thumb_func
  24              		.type	_idle_thread, %function
  25              	_idle_thread:
  26              	.LFB7:
  27              		.file 1 "../../../os/kernel/src/chsys.c"
  28              		.loc 1 54 0
  29              		.cfi_startproc
  30              		@ Volatile: function does not return.
  31              		@ args = 0, pretend = 0, frame = 0
  32              		@ frame_needed = 0, uses_anonymous_args = 0
  33              		@ link register save eliminated.
  34              	.LVL0:
  35              		.loc 1 57 0
  36 0000 024B     		ldr	r3, .L4
  37 0002 034A     		ldr	r2, .L4+4
  38 0004 9B69     		ldr	r3, [r3, #24]
  39 0006 9A61     		str	r2, [r3, #24]
  40              	.L2:
  41 0008 FEE7     		b	.L2
  42              	.L5:
  43 000a 00BF     		.align	2
  44              	.L4:
  45 000c 00000000 		.word	rlist
  46 0010 00000000 		.word	.LC0
  47              		.cfi_endproc
  48              	.LFE7:
  49              		.size	_idle_thread, .-_idle_thread
  50 0014 AFF30080 		.section	.text.chSysInit,"ax",%progbits
  50      AFF30080 
  50      AFF30080 
  51              		.align	2
  52              		.p2align 4,,15
  53              		.global	chSysInit
  54              		.thumb
  55              		.thumb_func
ARM GAS  /tmp/ccsjsM8c.s 			page 2


  56              		.type	chSysInit, %function
  57              	chSysInit:
  58              	.LFB8:
  59              		.loc 1 77 0
  60              		.cfi_startproc
  61              		@ args = 0, pretend = 0, frame = 0
  62              		@ frame_needed = 0, uses_anonymous_args = 0
  63 0000 00B5     		push	{lr}
  64              		.cfi_def_cfa_offset 4
  65              		.cfi_offset 14, -4
  66 0002 83B0     		sub	sp, sp, #12
  67              		.cfi_def_cfa_offset 16
  68              		.loc 1 83 0
  69 0004 FFF7FEFF 		bl	_port_init
  70              	.LVL1:
  71              		.loc 1 84 0
  72 0008 FFF7FEFF 		bl	_scheduler_init
  73              	.LVL2:
  74              		.loc 1 85 0
  75 000c FFF7FEFF 		bl	_vt_init
  76              	.LVL3:
  77              		.loc 1 87 0
  78 0010 FFF7FEFF 		bl	_core_init
  79              	.LVL4:
  80              		.loc 1 90 0
  81 0014 FFF7FEFF 		bl	_heap_init
  82              	.LVL5:
  83              		.loc 1 93 0
  84 0018 FFF7FEFF 		bl	_trace_init
  85              	.LVL6:
  86              		.loc 1 97 0
  87 001c 4021     		movs	r1, #64
  88 001e 0F48     		ldr	r0, .L7
  89 0020 FFF7FEFF 		bl	_thread_init
  90              	.LVL7:
  91              		.loc 1 98 0
  92 0024 0121     		movs	r1, #1
  93              		.loc 1 102 0
  94 0026 0E4A     		ldr	r2, .L7+4
  95              		.loc 1 97 0
  96 0028 0E4B     		ldr	r3, .L7+8
  97              		.loc 1 98 0
  98 002a 80F82010 		strb	r1, [r0, #32]
  99              		.loc 1 102 0
 100 002e C261     		str	r2, [r0, #28]
 101              		.loc 1 97 0
 102 0030 9861     		str	r0, [r3, #24]
 103              		.loc 1 104 0
 104 0032 FFF7FEFF 		bl	dbg_check_enable
 105              	.LVL8:
 106              	.LBB2:
 107 0036 0023     		movs	r3, #0
 108              	@ 104 "../../../os/kernel/src/chsys.c" 1
 109 0038 83F31188 		msr     BASEPRI, r3                    
 110 003c 62B6     		cpsie   i
 111              	@ 0 "" 2
 112              		.thumb
ARM GAS  /tmp/ccsjsM8c.s 			page 3


 113              	.LBE2:
 114              		.loc 1 108 0
 115 003e 094B     		ldr	r3, .L7+8
 116 0040 094A     		ldr	r2, .L7+12
 117 0042 9B69     		ldr	r3, [r3, #24]
 118              		.loc 1 114 0
 119 0044 0948     		ldr	r0, .L7+16
 120              		.loc 1 108 0
 121 0046 9A61     		str	r2, [r3, #24]
 122              		.loc 1 114 0
 123 0048 0023     		movs	r3, #0
 124 004a 0093     		str	r3, [sp]
 125 004c C021     		movs	r1, #192
 126 004e 0122     		movs	r2, #1
 127 0050 074B     		ldr	r3, .L7+20
 128 0052 FFF7FEFF 		bl	chThdCreateStatic
 129              	.LVL9:
 130              		.loc 1 117 0
 131 0056 03B0     		add	sp, sp, #12
 132              		@ sp needed
 133 0058 5DF804FB 		ldr	pc, [sp], #4
 134              	.L8:
 135              		.align	2
 136              	.L7:
 137 005c 00000000 		.word	.LANCHOR0
 138 0060 00000000 		.word	__main_thread_stack_base__
 139 0064 00000000 		.word	rlist
 140 0068 00000000 		.word	ch_debug
 141 006c 00000000 		.word	.LANCHOR1
 142 0070 00000000 		.word	_idle_thread
 143              		.cfi_endproc
 144              	.LFE8:
 145              		.size	chSysInit, .-chSysInit
 146 0074 AFF30080 		.section	.text.chSysTimerHandlerI,"ax",%progbits
 146      AFF30080 
 146      AFF30080 
 147              		.align	2
 148              		.p2align 4,,15
 149              		.global	chSysTimerHandlerI
 150              		.thumb
 151              		.thumb_func
 152              		.type	chSysTimerHandlerI, %function
 153              	chSysTimerHandlerI:
 154              	.LFB9:
 155              		.loc 1 130 0
 156              		.cfi_startproc
 157              		@ args = 0, pretend = 0, frame = 0
 158              		@ frame_needed = 0, uses_anonymous_args = 0
 159 0000 F8B5     		push	{r3, r4, r5, r6, r7, lr}
 160              		.cfi_def_cfa_offset 24
 161              		.cfi_offset 3, -24
 162              		.cfi_offset 4, -20
 163              		.cfi_offset 5, -16
 164              		.cfi_offset 6, -12
 165              		.cfi_offset 7, -8
 166              		.cfi_offset 14, -4
 167              		.loc 1 132 0
ARM GAS  /tmp/ccsjsM8c.s 			page 4


 168 0002 FFF7FEFF 		bl	chDbgCheckClassI
 169              	.LVL10:
 170              		.loc 1 136 0
 171 0006 174B     		ldr	r3, .L17
 172 0008 9A69     		ldr	r2, [r3, #24]
 173 000a 92F82330 		ldrb	r3, [r2, #35]	@ zero_extendqisi2
 174 000e 13B1     		cbz	r3, .L10
 175              		.loc 1 138 0
 176 0010 013B     		subs	r3, r3, #1
 177 0012 82F82330 		strb	r3, [r2, #35]
 178              	.L10:
 179              		.loc 1 141 0
 180 0016 516A     		ldr	r1, [r2, #36]
 181              		.loc 1 143 0
 182 0018 134B     		ldr	r3, .L17+4
 183              		.loc 1 141 0
 184 001a 0131     		adds	r1, r1, #1
 185 001c 5162     		str	r1, [r2, #36]
 186              		.loc 1 143 0
 187 001e DA68     		ldr	r2, [r3, #12]
 188 0020 1C68     		ldr	r4, [r3]
 189 0022 0132     		adds	r2, r2, #1
 190 0024 9C42     		cmp	r4, r3
 191 0026 DA60     		str	r2, [r3, #12]
 192 0028 1AD0     		beq	.L9
 193              	.LBB3:
 194              		.loc 1 143 0 is_stmt 0 discriminator 1
 195 002a A768     		ldr	r7, [r4, #8]
 196 002c 013F     		subs	r7, r7, #1
 197 002e A760     		str	r7, [r4, #8]
 198              	.LVL11:
 199 0030 B7B9     		cbnz	r7, .L9
 200              		.loc 1 143 0
 201 0032 1E46     		mov	r6, r3
 202              	.L13:
 203              	.LBB4:
 204              		.loc 1 143 0 discriminator 2
 205 0034 2268     		ldr	r2, [r4]
 206 0036 E568     		ldr	r5, [r4, #12]
 207              	.LVL12:
 208 0038 E760     		str	r7, [r4, #12]
 209 003a 5360     		str	r3, [r2, #4]
 210 003c 1A60     		str	r2, [r3]
 211 003e FFF7FEFF 		bl	dbg_check_unlock_from_isr
 212              	.LVL13:
 213              	.LBB5:
 214 0042 0023     		movs	r3, #0
 215              	@ 143 "../../../os/kernel/src/chsys.c" 1
 216 0044 83F31188 		msr     BASEPRI, r3
 217              	@ 0 "" 2
 218              		.thumb
 219              	.LBE5:
 220 0048 2069     		ldr	r0, [r4, #16]
 221 004a A847     		blx	r5
 222              	.LVL14:
 223              	.LBB6:
 224 004c 2023     		movs	r3, #32
ARM GAS  /tmp/ccsjsM8c.s 			page 5


 225              	@ 143 "../../../os/kernel/src/chsys.c" 1
 226 004e 83F31188 		msr     BASEPRI, r3
 227              	@ 0 "" 2
 228              		.thumb
 229              	.LBE6:
 230 0052 FFF7FEFF 		bl	dbg_check_lock_from_isr
 231              	.LVL15:
 232              	.LBE4:
 233 0056 3468     		ldr	r4, [r6]
 234              	.LVL16:
 235 0058 034B     		ldr	r3, .L17+4
 236 005a A268     		ldr	r2, [r4, #8]
 237 005c 002A     		cmp	r2, #0
 238 005e E9D0     		beq	.L13
 239              	.LVL17:
 240              	.L9:
 241 0060 F8BD     		pop	{r3, r4, r5, r6, r7, pc}
 242              	.L18:
 243 0062 00BF     		.align	2
 244              	.L17:
 245 0064 00000000 		.word	rlist
 246 0068 00000000 		.word	vtlist
 247              	.LBE3:
 248              		.cfi_endproc
 249              	.LFE9:
 250              		.size	chSysTimerHandlerI, .-chSysTimerHandlerI
 251              		.global	_idle_thread_wa
 252 006c AFF30080 		.section	.bss.mainthread.4824,"aw",%nobits
 253              		.align	2
 254              		.set	.LANCHOR0,. + 0
 255              		.type	mainthread.4824, %object
 256              		.size	mainthread.4824, 76
 257              	mainthread.4824:
 258 0000 00000000 		.space	76
 258      00000000 
 258      00000000 
 258      00000000 
 258      00000000 
 259              		.section	.rodata.str1.4,"aMS",%progbits,1
 260              		.align	2
 261              	.LC0:
 262 0000 69646C65 		.ascii	"idle\000"
 262      00
 263 0005 000000   		.section	.bss._idle_thread_wa,"aw",%nobits
 264              		.align	3
 265              		.set	.LANCHOR1,. + 0
 266              		.type	_idle_thread_wa, %object
 267              		.size	_idle_thread_wa, 192
 268              	_idle_thread_wa:
 269 0000 00000000 		.space	192
 269      00000000 
 269      00000000 
 269      00000000 
 269      00000000 
 270              		.text
 271              	.Letext0:
 272              		.file 2 "/usr/local/csl/gcc-arm-none-eabi-4_8-2013q4/lib/gcc/arm-none-eabi/4.8.3/include/stddef.h"
ARM GAS  /tmp/ccsjsM8c.s 			page 6


 273              		.file 3 "/usr/local/csl/gcc-arm-none-eabi-4_8-2013q4/arm-none-eabi/include/stdint.h"
 274              		.file 4 "../../../os/ports/GCC/ARMCMx/chtypes.h"
 275              		.file 5 "../../../os/kernel/include/chlists.h"
 276              		.file 6 "../../../os/kernel/include/chthreads.h"
 277              		.file 7 "../../../os/ports/GCC/ARMCMx/chcore_v7m.h"
 278              		.file 8 "../../../os/kernel/include/chvt.h"
 279              		.file 9 "../../../os/kernel/include/chschd.h"
 280              		.file 10 "../../../os/kernel/include/chmtx.h"
 281              		.file 11 "../../../os/kernel/include/chregistry.h"
 282              		.file 12 "../../../os/kernel/include/chmemcore.h"
 283              		.file 13 "../../../os/kernel/include/chheap.h"
 284              		.file 14 "../../../os/kernel/include/chdebug.h"
 285              		.section	.debug_info,"",%progbits
 286              	.Ldebug_info0:
 287 0000 70080000 		.4byte	0x870
 288 0004 0400     		.2byte	0x4
 289 0006 00000000 		.4byte	.Ldebug_abbrev0
 290 000a 04       		.byte	0x4
 291 000b 01       		.uleb128 0x1
 292 000c 1E030000 		.4byte	.LASF118
 293 0010 01       		.byte	0x1
 294 0011 99000000 		.4byte	.LASF119
 295 0015 D5050000 		.4byte	.LASF120
 296 0019 00000000 		.4byte	.Ldebug_ranges0+0
 297 001d 00000000 		.4byte	0
 298 0021 00000000 		.4byte	.Ldebug_line0
 299 0025 02       		.uleb128 0x2
 300 0026 04       		.byte	0x4
 301 0027 05       		.byte	0x5
 302 0028 696E7400 		.ascii	"int\000"
 303 002c 03       		.uleb128 0x3
 304 002d 1B000000 		.4byte	.LASF2
 305 0031 02       		.byte	0x2
 306 0032 D4       		.byte	0xd4
 307 0033 37000000 		.4byte	0x37
 308 0037 04       		.uleb128 0x4
 309 0038 04       		.byte	0x4
 310 0039 07       		.byte	0x7
 311 003a A9010000 		.4byte	.LASF0
 312 003e 04       		.uleb128 0x4
 313 003f 01       		.byte	0x1
 314 0040 06       		.byte	0x6
 315 0041 D6000000 		.4byte	.LASF1
 316 0045 03       		.uleb128 0x3
 317 0046 67050000 		.4byte	.LASF3
 318 004a 03       		.byte	0x3
 319 004b 2A       		.byte	0x2a
 320 004c 50000000 		.4byte	0x50
 321 0050 04       		.uleb128 0x4
 322 0051 01       		.byte	0x1
 323 0052 08       		.byte	0x8
 324 0053 06040000 		.4byte	.LASF4
 325 0057 04       		.uleb128 0x4
 326 0058 02       		.byte	0x2
 327 0059 05       		.byte	0x5
 328 005a 29040000 		.4byte	.LASF5
 329 005e 03       		.uleb128 0x3
ARM GAS  /tmp/ccsjsM8c.s 			page 7


 330 005f 45010000 		.4byte	.LASF6
 331 0063 03       		.byte	0x3
 332 0064 36       		.byte	0x36
 333 0065 69000000 		.4byte	0x69
 334 0069 04       		.uleb128 0x4
 335 006a 02       		.byte	0x2
 336 006b 07       		.byte	0x7
 337 006c FC010000 		.4byte	.LASF7
 338 0070 03       		.uleb128 0x3
 339 0071 FE030000 		.4byte	.LASF8
 340 0075 03       		.byte	0x3
 341 0076 4F       		.byte	0x4f
 342 0077 7B000000 		.4byte	0x7b
 343 007b 04       		.uleb128 0x4
 344 007c 04       		.byte	0x4
 345 007d 05       		.byte	0x5
 346 007e 33010000 		.4byte	.LASF9
 347 0082 03       		.uleb128 0x3
 348 0083 9C040000 		.4byte	.LASF10
 349 0087 03       		.byte	0x3
 350 0088 50       		.byte	0x50
 351 0089 8D000000 		.4byte	0x8d
 352 008d 04       		.uleb128 0x4
 353 008e 04       		.byte	0x4
 354 008f 07       		.byte	0x7
 355 0090 CB010000 		.4byte	.LASF11
 356 0094 04       		.uleb128 0x4
 357 0095 08       		.byte	0x8
 358 0096 05       		.byte	0x5
 359 0097 C8000000 		.4byte	.LASF12
 360 009b 03       		.uleb128 0x3
 361 009c 29000000 		.4byte	.LASF13
 362 00a0 03       		.byte	0x3
 363 00a1 78       		.byte	0x78
 364 00a2 A6000000 		.4byte	0xa6
 365 00a6 04       		.uleb128 0x4
 366 00a7 08       		.byte	0x8
 367 00a8 07       		.byte	0x7
 368 00a9 4C000000 		.4byte	.LASF14
 369 00ad 04       		.uleb128 0x4
 370 00ae 01       		.byte	0x1
 371 00af 02       		.byte	0x2
 372 00b0 F8030000 		.4byte	.LASF15
 373 00b4 03       		.uleb128 0x3
 374 00b5 32020000 		.4byte	.LASF16
 375 00b9 04       		.byte	0x4
 376 00ba 25       		.byte	0x25
 377 00bb 45000000 		.4byte	0x45
 378 00bf 03       		.uleb128 0x3
 379 00c0 3C010000 		.4byte	.LASF17
 380 00c4 04       		.byte	0x4
 381 00c5 26       		.byte	0x26
 382 00c6 45000000 		.4byte	0x45
 383 00ca 03       		.uleb128 0x3
 384 00cb FC020000 		.4byte	.LASF18
 385 00cf 04       		.byte	0x4
 386 00d0 27       		.byte	0x27
ARM GAS  /tmp/ccsjsM8c.s 			page 8


 387 00d1 45000000 		.4byte	0x45
 388 00d5 03       		.uleb128 0x3
 389 00d6 29010000 		.4byte	.LASF19
 390 00da 04       		.byte	0x4
 391 00db 28       		.byte	0x28
 392 00dc 45000000 		.4byte	0x45
 393 00e0 03       		.uleb128 0x3
 394 00e1 16030000 		.4byte	.LASF20
 395 00e5 04       		.byte	0x4
 396 00e6 29       		.byte	0x29
 397 00e7 82000000 		.4byte	0x82
 398 00eb 03       		.uleb128 0x3
 399 00ec 1B020000 		.4byte	.LASF21
 400 00f0 04       		.byte	0x4
 401 00f1 2A       		.byte	0x2a
 402 00f2 70000000 		.4byte	0x70
 403 00f6 03       		.uleb128 0x3
 404 00f7 46020000 		.4byte	.LASF22
 405 00fb 04       		.byte	0x4
 406 00fc 2C       		.byte	0x2c
 407 00fd 82000000 		.4byte	0x82
 408 0101 03       		.uleb128 0x3
 409 0102 ED040000 		.4byte	.LASF23
 410 0106 04       		.byte	0x4
 411 0107 2E       		.byte	0x2e
 412 0108 82000000 		.4byte	0x82
 413 010c 03       		.uleb128 0x3
 414 010d 7D040000 		.4byte	.LASF24
 415 0111 05       		.byte	0x5
 416 0112 23       		.byte	0x23
 417 0113 17010000 		.4byte	0x117
 418 0117 05       		.uleb128 0x5
 419 0118 7D040000 		.4byte	.LASF24
 420 011c 4C       		.byte	0x4c
 421 011d 06       		.byte	0x6
 422 011e 57       		.byte	0x57
 423 011f 20020000 		.4byte	0x220
 424 0123 06       		.uleb128 0x6
 425 0124 5F040000 		.4byte	.LASF25
 426 0128 06       		.byte	0x6
 427 0129 58       		.byte	0x58
 428 012a 41020000 		.4byte	0x241
 429 012e 00       		.byte	0
 430 012f 06       		.uleb128 0x6
 431 0130 0F030000 		.4byte	.LASF26
 432 0134 06       		.byte	0x6
 433 0135 5A       		.byte	0x5a
 434 0136 41020000 		.4byte	0x241
 435 013a 04       		.byte	0x4
 436 013b 06       		.uleb128 0x6
 437 013c 85000000 		.4byte	.LASF27
 438 0140 06       		.byte	0x6
 439 0141 5C       		.byte	0x5c
 440 0142 E0000000 		.4byte	0xe0
 441 0146 08       		.byte	0x8
 442 0147 06       		.uleb128 0x6
 443 0148 C5050000 		.4byte	.LASF28
ARM GAS  /tmp/ccsjsM8c.s 			page 9


 444 014c 06       		.byte	0x6
 445 014d 5D       		.byte	0x5d
 446 014e 06030000 		.4byte	0x306
 447 0152 0C       		.byte	0xc
 448 0153 06       		.uleb128 0x6
 449 0154 58010000 		.4byte	.LASF29
 450 0158 06       		.byte	0x6
 451 0159 5F       		.byte	0x5f
 452 015a 41020000 		.4byte	0x241
 453 015e 10       		.byte	0x10
 454 015f 06       		.uleb128 0x6
 455 0160 BA020000 		.4byte	.LASF30
 456 0164 06       		.byte	0x6
 457 0165 60       		.byte	0x60
 458 0166 41020000 		.4byte	0x241
 459 016a 14       		.byte	0x14
 460 016b 06       		.uleb128 0x6
 461 016c 99050000 		.4byte	.LASF31
 462 0170 06       		.byte	0x6
 463 0171 67       		.byte	0x67
 464 0172 C0040000 		.4byte	0x4c0
 465 0176 18       		.byte	0x18
 466 0177 06       		.uleb128 0x6
 467 0178 9E010000 		.4byte	.LASF32
 468 017c 06       		.byte	0x6
 469 017d 6D       		.byte	0x6d
 470 017e D2040000 		.4byte	0x4d2
 471 0182 1C       		.byte	0x1c
 472 0183 06       		.uleb128 0x6
 473 0184 33040000 		.4byte	.LASF33
 474 0188 06       		.byte	0x6
 475 0189 72       		.byte	0x72
 476 018a BF000000 		.4byte	0xbf
 477 018e 20       		.byte	0x20
 478 018f 06       		.uleb128 0x6
 479 0190 75040000 		.4byte	.LASF34
 480 0194 06       		.byte	0x6
 481 0195 76       		.byte	0x76
 482 0196 B4000000 		.4byte	0xb4
 483 019a 21       		.byte	0x21
 484 019b 06       		.uleb128 0x6
 485 019c 50050000 		.4byte	.LASF35
 486 01a0 06       		.byte	0x6
 487 01a1 7B       		.byte	0x7b
 488 01a2 CA000000 		.4byte	0xca
 489 01a6 22       		.byte	0x22
 490 01a7 06       		.uleb128 0x6
 491 01a8 3B040000 		.4byte	.LASF36
 492 01ac 06       		.byte	0x6
 493 01ad 81       		.byte	0x81
 494 01ae D5000000 		.4byte	0xd5
 495 01b2 23       		.byte	0x23
 496 01b3 06       		.uleb128 0x6
 497 01b4 14050000 		.4byte	.LASF37
 498 01b8 06       		.byte	0x6
 499 01b9 88       		.byte	0x88
 500 01ba DD030000 		.4byte	0x3dd
ARM GAS  /tmp/ccsjsM8c.s 			page 10


 501 01be 24       		.byte	0x24
 502 01bf 07       		.uleb128 0x7
 503 01c0 705F7500 		.ascii	"p_u\000"
 504 01c4 06       		.byte	0x6
 505 01c5 AD       		.byte	0xad
 506 01c6 8B040000 		.4byte	0x48b
 507 01ca 28       		.byte	0x28
 508 01cb 06       		.uleb128 0x6
 509 01cc CB050000 		.4byte	.LASF38
 510 01d0 06       		.byte	0x6
 511 01d1 B2       		.byte	0xb2
 512 01d2 67020000 		.4byte	0x267
 513 01d6 2C       		.byte	0x2c
 514 01d7 06       		.uleb128 0x6
 515 01d8 22050000 		.4byte	.LASF39
 516 01dc 06       		.byte	0x6
 517 01dd B8       		.byte	0xb8
 518 01de 47020000 		.4byte	0x247
 519 01e2 30       		.byte	0x30
 520 01e3 06       		.uleb128 0x6
 521 01e4 15000000 		.4byte	.LASF40
 522 01e8 06       		.byte	0x6
 523 01e9 BC       		.byte	0xbc
 524 01ea EB000000 		.4byte	0xeb
 525 01ee 38       		.byte	0x38
 526 01ef 06       		.uleb128 0x6
 527 01f0 91040000 		.4byte	.LASF41
 528 01f4 06       		.byte	0x6
 529 01f5 C2       		.byte	0xc2
 530 01f6 F6000000 		.4byte	0xf6
 531 01fa 3C       		.byte	0x3c
 532 01fb 06       		.uleb128 0x6
 533 01fc 1F040000 		.4byte	.LASF42
 534 0200 06       		.byte	0x6
 535 0201 C9       		.byte	0xc9
 536 0202 D8040000 		.4byte	0x4d8
 537 0206 40       		.byte	0x40
 538 0207 06       		.uleb128 0x6
 539 0208 F7040000 		.4byte	.LASF43
 540 020c 06       		.byte	0x6
 541 020d CD       		.byte	0xcd
 542 020e E0000000 		.4byte	0xe0
 543 0212 44       		.byte	0x44
 544 0213 06       		.uleb128 0x6
 545 0214 19010000 		.4byte	.LASF44
 546 0218 06       		.byte	0x6
 547 0219 D3       		.byte	0xd3
 548 021a 7D020000 		.4byte	0x27d
 549 021e 48       		.byte	0x48
 550 021f 00       		.byte	0
 551 0220 08       		.uleb128 0x8
 552 0221 08       		.byte	0x8
 553 0222 05       		.byte	0x5
 554 0223 5A       		.byte	0x5a
 555 0224 41020000 		.4byte	0x241
 556 0228 06       		.uleb128 0x6
 557 0229 5F040000 		.4byte	.LASF25
ARM GAS  /tmp/ccsjsM8c.s 			page 11


 558 022d 05       		.byte	0x5
 559 022e 5B       		.byte	0x5b
 560 022f 41020000 		.4byte	0x241
 561 0233 00       		.byte	0
 562 0234 06       		.uleb128 0x6
 563 0235 0F030000 		.4byte	.LASF26
 564 0239 05       		.byte	0x5
 565 023a 5D       		.byte	0x5d
 566 023b 41020000 		.4byte	0x241
 567 023f 04       		.byte	0x4
 568 0240 00       		.byte	0
 569 0241 09       		.uleb128 0x9
 570 0242 04       		.byte	0x4
 571 0243 0C010000 		.4byte	0x10c
 572 0247 03       		.uleb128 0x3
 573 0248 C8020000 		.4byte	.LASF45
 574 024c 05       		.byte	0x5
 575 024d 5F       		.byte	0x5f
 576 024e 20020000 		.4byte	0x220
 577 0252 08       		.uleb128 0x8
 578 0253 04       		.byte	0x4
 579 0254 05       		.byte	0x5
 580 0255 64       		.byte	0x64
 581 0256 67020000 		.4byte	0x267
 582 025a 06       		.uleb128 0x6
 583 025b 5F040000 		.4byte	.LASF25
 584 025f 05       		.byte	0x5
 585 0260 66       		.byte	0x66
 586 0261 41020000 		.4byte	0x241
 587 0265 00       		.byte	0
 588 0266 00       		.byte	0
 589 0267 03       		.uleb128 0x3
 590 0268 3A020000 		.4byte	.LASF46
 591 026c 05       		.byte	0x5
 592 026d 69       		.byte	0x69
 593 026e 52020000 		.4byte	0x252
 594 0272 03       		.uleb128 0x3
 595 0273 78010000 		.4byte	.LASF47
 596 0277 07       		.byte	0x7
 597 0278 DE       		.byte	0xde
 598 0279 7D020000 		.4byte	0x27d
 599 027d 0A       		.uleb128 0xa
 600 027e 04       		.byte	0x4
 601 027f 03       		.uleb128 0x3
 602 0280 58020000 		.4byte	.LASF48
 603 0284 07       		.byte	0x7
 604 0285 E4       		.byte	0xe4
 605 0286 9B000000 		.4byte	0x9b
 606 028a 0B       		.uleb128 0xb
 607 028b 1B050000 		.4byte	.LASF49
 608 028f 24       		.byte	0x24
 609 0290 07       		.byte	0x7
 610 0291 0501     		.2byte	0x105
 611 0293 06030000 		.4byte	0x306
 612 0297 0C       		.uleb128 0xc
 613 0298 723400   		.ascii	"r4\000"
 614 029b 07       		.byte	0x7
ARM GAS  /tmp/ccsjsM8c.s 			page 12


 615 029c 1801     		.2byte	0x118
 616 029e 72020000 		.4byte	0x272
 617 02a2 00       		.byte	0
 618 02a3 0C       		.uleb128 0xc
 619 02a4 723500   		.ascii	"r5\000"
 620 02a7 07       		.byte	0x7
 621 02a8 1901     		.2byte	0x119
 622 02aa 72020000 		.4byte	0x272
 623 02ae 04       		.byte	0x4
 624 02af 0C       		.uleb128 0xc
 625 02b0 723600   		.ascii	"r6\000"
 626 02b3 07       		.byte	0x7
 627 02b4 1A01     		.2byte	0x11a
 628 02b6 72020000 		.4byte	0x272
 629 02ba 08       		.byte	0x8
 630 02bb 0C       		.uleb128 0xc
 631 02bc 723700   		.ascii	"r7\000"
 632 02bf 07       		.byte	0x7
 633 02c0 1B01     		.2byte	0x11b
 634 02c2 72020000 		.4byte	0x272
 635 02c6 0C       		.byte	0xc
 636 02c7 0C       		.uleb128 0xc
 637 02c8 723800   		.ascii	"r8\000"
 638 02cb 07       		.byte	0x7
 639 02cc 1C01     		.2byte	0x11c
 640 02ce 72020000 		.4byte	0x272
 641 02d2 10       		.byte	0x10
 642 02d3 0C       		.uleb128 0xc
 643 02d4 723900   		.ascii	"r9\000"
 644 02d7 07       		.byte	0x7
 645 02d8 1D01     		.2byte	0x11d
 646 02da 72020000 		.4byte	0x272
 647 02de 14       		.byte	0x14
 648 02df 0C       		.uleb128 0xc
 649 02e0 72313000 		.ascii	"r10\000"
 650 02e4 07       		.byte	0x7
 651 02e5 1E01     		.2byte	0x11e
 652 02e7 72020000 		.4byte	0x272
 653 02eb 18       		.byte	0x18
 654 02ec 0C       		.uleb128 0xc
 655 02ed 72313100 		.ascii	"r11\000"
 656 02f1 07       		.byte	0x7
 657 02f2 1F01     		.2byte	0x11f
 658 02f4 72020000 		.4byte	0x272
 659 02f8 1C       		.byte	0x1c
 660 02f9 0C       		.uleb128 0xc
 661 02fa 6C7200   		.ascii	"lr\000"
 662 02fd 07       		.byte	0x7
 663 02fe 2001     		.2byte	0x120
 664 0300 72020000 		.4byte	0x272
 665 0304 20       		.byte	0x20
 666 0305 00       		.byte	0
 667 0306 0B       		.uleb128 0xb
 668 0307 F4010000 		.4byte	.LASF50
 669 030b 04       		.byte	0x4
 670 030c 07       		.byte	0x7
 671 030d 2A01     		.2byte	0x12a
ARM GAS  /tmp/ccsjsM8c.s 			page 13


 672 030f 21030000 		.4byte	0x321
 673 0313 0C       		.uleb128 0xc
 674 0314 72313300 		.ascii	"r13\000"
 675 0318 07       		.byte	0x7
 676 0319 2B01     		.2byte	0x12b
 677 031b 21030000 		.4byte	0x321
 678 031f 00       		.byte	0
 679 0320 00       		.byte	0
 680 0321 09       		.uleb128 0x9
 681 0322 04       		.byte	0x4
 682 0323 8A020000 		.4byte	0x28a
 683 0327 04       		.uleb128 0x4
 684 0328 04       		.byte	0x4
 685 0329 07       		.byte	0x7
 686 032a 91020000 		.4byte	.LASF51
 687 032e 03       		.uleb128 0x3
 688 032f 02050000 		.4byte	.LASF52
 689 0333 08       		.byte	0x8
 690 0334 51       		.byte	0x51
 691 0335 39030000 		.4byte	0x339
 692 0339 09       		.uleb128 0x9
 693 033a 04       		.byte	0x4
 694 033b 3F030000 		.4byte	0x33f
 695 033f 0D       		.uleb128 0xd
 696 0340 4A030000 		.4byte	0x34a
 697 0344 0E       		.uleb128 0xe
 698 0345 7D020000 		.4byte	0x27d
 699 0349 00       		.byte	0
 700 034a 03       		.uleb128 0x3
 701 034b B9040000 		.4byte	.LASF53
 702 034f 08       		.byte	0x8
 703 0350 56       		.byte	0x56
 704 0351 55030000 		.4byte	0x355
 705 0355 05       		.uleb128 0x5
 706 0356 B9040000 		.4byte	.LASF53
 707 035a 14       		.byte	0x14
 708 035b 08       		.byte	0x8
 709 035c 5D       		.byte	0x5d
 710 035d 9E030000 		.4byte	0x39e
 711 0361 06       		.uleb128 0x6
 712 0362 C3010000 		.4byte	.LASF54
 713 0366 08       		.byte	0x8
 714 0367 5E       		.byte	0x5e
 715 0368 9E030000 		.4byte	0x39e
 716 036c 00       		.byte	0
 717 036d 06       		.uleb128 0x6
 718 036e 81010000 		.4byte	.LASF55
 719 0372 08       		.byte	0x8
 720 0373 60       		.byte	0x60
 721 0374 9E030000 		.4byte	0x39e
 722 0378 04       		.byte	0x4
 723 0379 06       		.uleb128 0x6
 724 037a 89020000 		.4byte	.LASF56
 725 037e 08       		.byte	0x8
 726 037f 62       		.byte	0x62
 727 0380 01010000 		.4byte	0x101
 728 0384 08       		.byte	0x8
ARM GAS  /tmp/ccsjsM8c.s 			page 14


 729 0385 06       		.uleb128 0x6
 730 0386 9A020000 		.4byte	.LASF57
 731 038a 08       		.byte	0x8
 732 038b 63       		.byte	0x63
 733 038c 2E030000 		.4byte	0x32e
 734 0390 0C       		.byte	0xc
 735 0391 06       		.uleb128 0x6
 736 0392 3E050000 		.4byte	.LASF58
 737 0396 08       		.byte	0x8
 738 0397 65       		.byte	0x65
 739 0398 7D020000 		.4byte	0x27d
 740 039c 10       		.byte	0x10
 741 039d 00       		.byte	0
 742 039e 09       		.uleb128 0x9
 743 039f 04       		.byte	0x4
 744 03a0 4A030000 		.4byte	0x34a
 745 03a4 08       		.uleb128 0x8
 746 03a5 10       		.byte	0x10
 747 03a6 08       		.byte	0x8
 748 03a7 6F       		.byte	0x6f
 749 03a8 DD030000 		.4byte	0x3dd
 750 03ac 06       		.uleb128 0x6
 751 03ad C3010000 		.4byte	.LASF54
 752 03b1 08       		.byte	0x8
 753 03b2 70       		.byte	0x70
 754 03b3 9E030000 		.4byte	0x39e
 755 03b7 00       		.byte	0
 756 03b8 06       		.uleb128 0x6
 757 03b9 81010000 		.4byte	.LASF55
 758 03bd 08       		.byte	0x8
 759 03be 72       		.byte	0x72
 760 03bf 9E030000 		.4byte	0x39e
 761 03c3 04       		.byte	0x4
 762 03c4 06       		.uleb128 0x6
 763 03c5 89020000 		.4byte	.LASF56
 764 03c9 08       		.byte	0x8
 765 03ca 74       		.byte	0x74
 766 03cb 01010000 		.4byte	0x101
 767 03cf 08       		.byte	0x8
 768 03d0 06       		.uleb128 0x6
 769 03d1 A0050000 		.4byte	.LASF59
 770 03d5 08       		.byte	0x8
 771 03d6 75       		.byte	0x75
 772 03d7 DD030000 		.4byte	0x3dd
 773 03db 0C       		.byte	0xc
 774 03dc 00       		.byte	0
 775 03dd 0F       		.uleb128 0xf
 776 03de 01010000 		.4byte	0x101
 777 03e2 03       		.uleb128 0x3
 778 03e3 B6050000 		.4byte	.LASF60
 779 03e7 08       		.byte	0x8
 780 03e8 76       		.byte	0x76
 781 03e9 A4030000 		.4byte	0x3a4
 782 03ed 08       		.uleb128 0x8
 783 03ee 1C       		.byte	0x1c
 784 03ef 09       		.byte	0x9
 785 03f0 57       		.byte	0x57
ARM GAS  /tmp/ccsjsM8c.s 			page 15


 786 03f1 3E040000 		.4byte	0x43e
 787 03f5 06       		.uleb128 0x6
 788 03f6 B1040000 		.4byte	.LASF61
 789 03fa 09       		.byte	0x9
 790 03fb 58       		.byte	0x58
 791 03fc 47020000 		.4byte	0x247
 792 0400 00       		.byte	0
 793 0401 06       		.uleb128 0x6
 794 0402 51040000 		.4byte	.LASF62
 795 0406 09       		.byte	0x9
 796 0407 59       		.byte	0x59
 797 0408 E0000000 		.4byte	0xe0
 798 040c 08       		.byte	0x8
 799 040d 06       		.uleb128 0x6
 800 040e C2020000 		.4byte	.LASF63
 801 0412 09       		.byte	0x9
 802 0413 5B       		.byte	0x5b
 803 0414 06030000 		.4byte	0x306
 804 0418 0C       		.byte	0xc
 805 0419 06       		.uleb128 0x6
 806 041a 70010000 		.4byte	.LASF64
 807 041e 09       		.byte	0x9
 808 041f 5E       		.byte	0x5e
 809 0420 41020000 		.4byte	0x241
 810 0424 10       		.byte	0x10
 811 0425 06       		.uleb128 0x6
 812 0426 E7020000 		.4byte	.LASF65
 813 042a 09       		.byte	0x9
 814 042b 5F       		.byte	0x5f
 815 042c 41020000 		.4byte	0x241
 816 0430 14       		.byte	0x14
 817 0431 06       		.uleb128 0x6
 818 0432 DD020000 		.4byte	.LASF66
 819 0436 09       		.byte	0x9
 820 0437 62       		.byte	0x62
 821 0438 41020000 		.4byte	0x241
 822 043c 18       		.byte	0x18
 823 043d 00       		.byte	0
 824 043e 03       		.uleb128 0x3
 825 043f 57050000 		.4byte	.LASF67
 826 0443 09       		.byte	0x9
 827 0444 64       		.byte	0x64
 828 0445 ED030000 		.4byte	0x3ed
 829 0449 05       		.uleb128 0x5
 830 044a 52020000 		.4byte	.LASF68
 831 044e 10       		.byte	0x10
 832 044f 0A       		.byte	0xa
 833 0450 25       		.byte	0x25
 834 0451 7A040000 		.4byte	0x47a
 835 0455 06       		.uleb128 0x6
 836 0456 21010000 		.4byte	.LASF69
 837 045a 0A       		.byte	0xa
 838 045b 26       		.byte	0x26
 839 045c 47020000 		.4byte	0x247
 840 0460 00       		.byte	0
 841 0461 06       		.uleb128 0x6
 842 0462 BD050000 		.4byte	.LASF70
ARM GAS  /tmp/ccsjsM8c.s 			page 16


 843 0466 0A       		.byte	0xa
 844 0467 28       		.byte	0x28
 845 0468 41020000 		.4byte	0x241
 846 046c 08       		.byte	0x8
 847 046d 06       		.uleb128 0x6
 848 046e E6040000 		.4byte	.LASF71
 849 0472 0A       		.byte	0xa
 850 0473 2A       		.byte	0x2a
 851 0474 7A040000 		.4byte	0x47a
 852 0478 0C       		.byte	0xc
 853 0479 00       		.byte	0
 854 047a 09       		.uleb128 0x9
 855 047b 04       		.byte	0x4
 856 047c 49040000 		.4byte	0x449
 857 0480 03       		.uleb128 0x3
 858 0481 52020000 		.4byte	.LASF68
 859 0485 0A       		.byte	0xa
 860 0486 2C       		.byte	0x2c
 861 0487 49040000 		.4byte	0x449
 862 048b 10       		.uleb128 0x10
 863 048c 04       		.byte	0x4
 864 048d 06       		.byte	0x6
 865 048e 8F       		.byte	0x8f
 866 048f C0040000 		.4byte	0x4c0
 867 0493 11       		.uleb128 0x11
 868 0494 22000000 		.4byte	.LASF72
 869 0498 06       		.byte	0x6
 870 0499 96       		.byte	0x96
 871 049a EB000000 		.4byte	0xeb
 872 049e 11       		.uleb128 0x11
 873 049f 71000000 		.4byte	.LASF73
 874 04a3 06       		.byte	0x6
 875 04a4 9D       		.byte	0x9d
 876 04a5 EB000000 		.4byte	0xeb
 877 04a9 11       		.uleb128 0x11
 878 04aa 92050000 		.4byte	.LASF74
 879 04ae 06       		.byte	0x6
 880 04af A4       		.byte	0xa4
 881 04b0 7D020000 		.4byte	0x27d
 882 04b4 11       		.uleb128 0x11
 883 04b5 58040000 		.4byte	.LASF75
 884 04b9 06       		.byte	0x6
 885 04ba AB       		.byte	0xab
 886 04bb F6000000 		.4byte	0xf6
 887 04bf 00       		.byte	0
 888 04c0 09       		.uleb128 0x9
 889 04c1 04       		.byte	0x4
 890 04c2 C6040000 		.4byte	0x4c6
 891 04c6 12       		.uleb128 0x12
 892 04c7 CB040000 		.4byte	0x4cb
 893 04cb 04       		.uleb128 0x4
 894 04cc 01       		.byte	0x1
 895 04cd 08       		.byte	0x8
 896 04ce C6040000 		.4byte	.LASF76
 897 04d2 09       		.uleb128 0x9
 898 04d3 04       		.byte	0x4
 899 04d4 7F020000 		.4byte	0x27f
ARM GAS  /tmp/ccsjsM8c.s 			page 17


 900 04d8 09       		.uleb128 0x9
 901 04d9 04       		.byte	0x4
 902 04da 80040000 		.4byte	0x480
 903 04de 03       		.uleb128 0x3
 904 04df 00000000 		.4byte	.LASF77
 905 04e3 06       		.byte	0x6
 906 04e4 DE       		.byte	0xde
 907 04e5 E9040000 		.4byte	0x4e9
 908 04e9 09       		.uleb128 0x9
 909 04ea 04       		.byte	0x4
 910 04eb EF040000 		.4byte	0x4ef
 911 04ef 13       		.uleb128 0x13
 912 04f0 EB000000 		.4byte	0xeb
 913 04f4 FE040000 		.4byte	0x4fe
 914 04f8 0E       		.uleb128 0xe
 915 04f9 7D020000 		.4byte	0x27d
 916 04fd 00       		.byte	0
 917 04fe 08       		.uleb128 0x8
 918 04ff 16       		.byte	0x16
 919 0500 0B       		.byte	0xb
 920 0501 25       		.byte	0x25
 921 0502 DF050000 		.4byte	0x5df
 922 0506 06       		.uleb128 0x6
 923 0507 E6010000 		.4byte	.LASF78
 924 050b 0B       		.byte	0xb
 925 050c 26       		.byte	0x26
 926 050d DF050000 		.4byte	0x5df
 927 0511 00       		.byte	0
 928 0512 06       		.uleb128 0x6
 929 0513 75020000 		.4byte	.LASF79
 930 0517 0B       		.byte	0xb
 931 0518 27       		.byte	0x27
 932 0519 45000000 		.4byte	0x45
 933 051d 04       		.byte	0x4
 934 051e 06       		.uleb128 0x6
 935 051f D5020000 		.4byte	.LASF80
 936 0523 0B       		.byte	0xb
 937 0524 28       		.byte	0x28
 938 0525 45000000 		.4byte	0x45
 939 0529 05       		.byte	0x5
 940 052a 06       		.uleb128 0x6
 941 052b AB050000 		.4byte	.LASF81
 942 052f 0B       		.byte	0xb
 943 0530 29       		.byte	0x29
 944 0531 5E000000 		.4byte	0x5e
 945 0535 06       		.byte	0x6
 946 0536 06       		.uleb128 0x6
 947 0537 04030000 		.4byte	.LASF82
 948 053b 0B       		.byte	0xb
 949 053c 2A       		.byte	0x2a
 950 053d 45000000 		.4byte	0x45
 951 0541 08       		.byte	0x8
 952 0542 06       		.uleb128 0x6
 953 0543 A2020000 		.4byte	.LASF83
 954 0547 0B       		.byte	0xb
 955 0548 2B       		.byte	0x2b
 956 0549 45000000 		.4byte	0x45
ARM GAS  /tmp/ccsjsM8c.s 			page 18


 957 054d 09       		.byte	0x9
 958 054e 06       		.uleb128 0x6
 959 054f 63000000 		.4byte	.LASF84
 960 0553 0B       		.byte	0xb
 961 0554 2C       		.byte	0x2c
 962 0555 45000000 		.4byte	0x45
 963 0559 0A       		.byte	0xa
 964 055a 06       		.uleb128 0x6
 965 055b A5040000 		.4byte	.LASF85
 966 055f 0B       		.byte	0xb
 967 0560 2D       		.byte	0x2d
 968 0561 45000000 		.4byte	0x45
 969 0565 0B       		.byte	0xb
 970 0566 06       		.uleb128 0x6
 971 0567 45050000 		.4byte	.LASF86
 972 056b 0B       		.byte	0xb
 973 056c 2E       		.byte	0x2e
 974 056d 45000000 		.4byte	0x45
 975 0571 0C       		.byte	0xc
 976 0572 06       		.uleb128 0x6
 977 0573 84040000 		.4byte	.LASF87
 978 0577 0B       		.byte	0xb
 979 0578 2F       		.byte	0x2f
 980 0579 45000000 		.4byte	0x45
 981 057d 0D       		.byte	0xd
 982 057e 06       		.uleb128 0x6
 983 057f 08000000 		.4byte	.LASF88
 984 0583 0B       		.byte	0xb
 985 0584 30       		.byte	0x30
 986 0585 45000000 		.4byte	0x45
 987 0589 0E       		.byte	0xe
 988 058a 06       		.uleb128 0x6
 989 058b AE020000 		.4byte	.LASF89
 990 058f 0B       		.byte	0xb
 991 0590 31       		.byte	0x31
 992 0591 45000000 		.4byte	0x45
 993 0595 0F       		.byte	0xf
 994 0596 06       		.uleb128 0x6
 995 0597 E2000000 		.4byte	.LASF90
 996 059b 0B       		.byte	0xb
 997 059c 32       		.byte	0x32
 998 059d 45000000 		.4byte	0x45
 999 05a1 10       		.byte	0x10
 1000 05a2 06       		.uleb128 0x6
 1001 05a3 8C000000 		.4byte	.LASF91
 1002 05a7 0B       		.byte	0xb
 1003 05a8 34       		.byte	0x34
 1004 05a9 45000000 		.4byte	0x45
 1005 05ad 11       		.byte	0x11
 1006 05ae 06       		.uleb128 0x6
 1007 05af 0C010000 		.4byte	.LASF92
 1008 05b3 0B       		.byte	0xb
 1009 05b4 35       		.byte	0x35
 1010 05b5 45000000 		.4byte	0x45
 1011 05b9 12       		.byte	0x12
 1012 05ba 06       		.uleb128 0x6
 1013 05bb 7D020000 		.4byte	.LASF93
ARM GAS  /tmp/ccsjsM8c.s 			page 19


 1014 05bf 0B       		.byte	0xb
 1015 05c0 36       		.byte	0x36
 1016 05c1 45000000 		.4byte	0x45
 1017 05c5 13       		.byte	0x13
 1018 05c6 06       		.uleb128 0x6
 1019 05c7 66040000 		.4byte	.LASF94
 1020 05cb 0B       		.byte	0xb
 1021 05cc 37       		.byte	0x37
 1022 05cd 45000000 		.4byte	0x45
 1023 05d1 14       		.byte	0x14
 1024 05d2 06       		.uleb128 0x6
 1025 05d3 45040000 		.4byte	.LASF95
 1026 05d7 0B       		.byte	0xb
 1027 05d8 39       		.byte	0x39
 1028 05d9 45000000 		.4byte	0x45
 1029 05dd 15       		.byte	0x15
 1030 05de 00       		.byte	0
 1031 05df 14       		.uleb128 0x14
 1032 05e0 CB040000 		.4byte	0x4cb
 1033 05e4 EF050000 		.4byte	0x5ef
 1034 05e8 15       		.uleb128 0x15
 1035 05e9 27030000 		.4byte	0x327
 1036 05ed 03       		.byte	0x3
 1037 05ee 00       		.byte	0
 1038 05ef 03       		.uleb128 0x3
 1039 05f0 4E010000 		.4byte	.LASF96
 1040 05f4 0B       		.byte	0xb
 1041 05f5 3A       		.byte	0x3a
 1042 05f6 FE040000 		.4byte	0x4fe
 1043 05fa 16       		.uleb128 0x16
 1044 05fb EF020000 		.4byte	.LASF97
 1045 05ff 01       		.byte	0x1
 1046 0600 36       		.byte	0x36
 1047 0601 00000000 		.4byte	.LFB7
 1048 0605 14000000 		.4byte	.LFE7-.LFB7
 1049 0609 01       		.uleb128 0x1
 1050 060a 9C       		.byte	0x9c
 1051 060b 1B060000 		.4byte	0x61b
 1052 060f 17       		.uleb128 0x17
 1053 0610 7000     		.ascii	"p\000"
 1054 0612 01       		.byte	0x1
 1055 0613 36       		.byte	0x36
 1056 0614 7D020000 		.4byte	0x27d
 1057 0618 01       		.uleb128 0x1
 1058 0619 50       		.byte	0x50
 1059 061a 00       		.byte	0
 1060 061b 16       		.uleb128 0x16
 1061 061c 89010000 		.4byte	.LASF98
 1062 0620 01       		.byte	0x1
 1063 0621 4D       		.byte	0x4d
 1064 0622 00000000 		.4byte	.LFB8
 1065 0626 74000000 		.4byte	.LFE8-.LFB8
 1066 062a 01       		.uleb128 0x1
 1067 062b 9C       		.byte	0x9c
 1068 062c F1060000 		.4byte	0x6f1
 1069 0630 18       		.uleb128 0x18
 1070 0631 7A000000 		.4byte	.LASF99
ARM GAS  /tmp/ccsjsM8c.s 			page 20


 1071 0635 01       		.byte	0x1
 1072 0636 4E       		.byte	0x4e
 1073 0637 0C010000 		.4byte	0x10c
 1074 063b 05       		.uleb128 0x5
 1075 063c 03       		.byte	0x3
 1076 063d 00000000 		.4byte	mainthread.4824
 1077 0641 19       		.uleb128 0x19
 1078 0642 CB040000 		.4byte	.LASF101
 1079 0646 01       		.byte	0x1
 1080 0647 50       		.byte	0x50
 1081 0648 7F020000 		.4byte	0x27f
 1082 064c 1A       		.uleb128 0x1a
 1083 064d 36000000 		.4byte	.LBB2
 1084 0651 08000000 		.4byte	.LBE2-.LBB2
 1085 0655 67060000 		.4byte	0x667
 1086 0659 1B       		.uleb128 0x1b
 1087 065a 746D7000 		.ascii	"tmp\000"
 1088 065e 01       		.byte	0x1
 1089 065f 68       		.byte	0x68
 1090 0660 82000000 		.4byte	0x82
 1091 0664 01       		.uleb128 0x1
 1092 0665 53       		.byte	0x53
 1093 0666 00       		.byte	0
 1094 0667 1C       		.uleb128 0x1c
 1095 0668 08000000 		.4byte	.LVL1
 1096 066c E7070000 		.4byte	0x7e7
 1097 0670 1C       		.uleb128 0x1c
 1098 0671 0C000000 		.4byte	.LVL2
 1099 0675 EF070000 		.4byte	0x7ef
 1100 0679 1C       		.uleb128 0x1c
 1101 067a 10000000 		.4byte	.LVL3
 1102 067e F6070000 		.4byte	0x7f6
 1103 0682 1C       		.uleb128 0x1c
 1104 0683 14000000 		.4byte	.LVL4
 1105 0687 FD070000 		.4byte	0x7fd
 1106 068b 1C       		.uleb128 0x1c
 1107 068c 18000000 		.4byte	.LVL5
 1108 0690 04080000 		.4byte	0x804
 1109 0694 1C       		.uleb128 0x1c
 1110 0695 1C000000 		.4byte	.LVL6
 1111 0699 0B080000 		.4byte	0x80b
 1112 069d 1D       		.uleb128 0x1d
 1113 069e 24000000 		.4byte	.LVL7
 1114 06a2 12080000 		.4byte	0x812
 1115 06a6 BA060000 		.4byte	0x6ba
 1116 06aa 1E       		.uleb128 0x1e
 1117 06ab 01       		.uleb128 0x1
 1118 06ac 51       		.byte	0x51
 1119 06ad 02       		.uleb128 0x2
 1120 06ae 08       		.byte	0x8
 1121 06af 40       		.byte	0x40
 1122 06b0 1E       		.uleb128 0x1e
 1123 06b1 01       		.uleb128 0x1
 1124 06b2 50       		.byte	0x50
 1125 06b3 05       		.uleb128 0x5
 1126 06b4 03       		.byte	0x3
 1127 06b5 00000000 		.4byte	.LANCHOR0
ARM GAS  /tmp/ccsjsM8c.s 			page 21


 1128 06b9 00       		.byte	0
 1129 06ba 1C       		.uleb128 0x1c
 1130 06bb 36000000 		.4byte	.LVL8
 1131 06bf 2D080000 		.4byte	0x82d
 1132 06c3 1F       		.uleb128 0x1f
 1133 06c4 56000000 		.4byte	.LVL9
 1134 06c8 34080000 		.4byte	0x834
 1135 06cc 1E       		.uleb128 0x1e
 1136 06cd 01       		.uleb128 0x1
 1137 06ce 53       		.byte	0x53
 1138 06cf 05       		.uleb128 0x5
 1139 06d0 03       		.byte	0x3
 1140 06d1 00000000 		.4byte	_idle_thread
 1141 06d5 1E       		.uleb128 0x1e
 1142 06d6 01       		.uleb128 0x1
 1143 06d7 52       		.byte	0x52
 1144 06d8 01       		.uleb128 0x1
 1145 06d9 31       		.byte	0x31
 1146 06da 1E       		.uleb128 0x1e
 1147 06db 01       		.uleb128 0x1
 1148 06dc 51       		.byte	0x51
 1149 06dd 02       		.uleb128 0x2
 1150 06de 08       		.byte	0x8
 1151 06df C0       		.byte	0xc0
 1152 06e0 1E       		.uleb128 0x1e
 1153 06e1 01       		.uleb128 0x1
 1154 06e2 50       		.byte	0x50
 1155 06e3 05       		.uleb128 0x5
 1156 06e4 03       		.byte	0x3
 1157 06e5 00000000 		.4byte	.LANCHOR1
 1158 06e9 1E       		.uleb128 0x1e
 1159 06ea 02       		.uleb128 0x2
 1160 06eb 7D       		.byte	0x7d
 1161 06ec 00       		.sleb128 0
 1162 06ed 01       		.uleb128 0x1
 1163 06ee 30       		.byte	0x30
 1164 06ef 00       		.byte	0
 1165 06f0 00       		.byte	0
 1166 06f1 16       		.uleb128 0x16
 1167 06f2 39000000 		.4byte	.LASF100
 1168 06f6 01       		.byte	0x1
 1169 06f7 82       		.byte	0x82
 1170 06f8 00000000 		.4byte	.LFB9
 1171 06fc 6C000000 		.4byte	.LFE9-.LFB9
 1172 0700 01       		.uleb128 0x1
 1173 0701 9C       		.byte	0x9c
 1174 0702 95070000 		.4byte	0x795
 1175 0706 1A       		.uleb128 0x1a
 1176 0707 2A000000 		.4byte	.LBB3
 1177 070b 42000000 		.4byte	.LBE3-.LBB3
 1178 070f 8B070000 		.4byte	0x78b
 1179 0713 20       		.uleb128 0x20
 1180 0714 76747000 		.ascii	"vtp\000"
 1181 0718 01       		.byte	0x1
 1182 0719 8F       		.byte	0x8f
 1183 071a 9E030000 		.4byte	0x39e
 1184 071e 00000000 		.4byte	.LLST0
ARM GAS  /tmp/ccsjsM8c.s 			page 22


 1185 0722 21       		.uleb128 0x21
 1186 0723 34000000 		.4byte	.LBB4
 1187 0727 22000000 		.4byte	.LBE4-.LBB4
 1188 072b 20       		.uleb128 0x20
 1189 072c 666E00   		.ascii	"fn\000"
 1190 072f 01       		.byte	0x1
 1191 0730 8F       		.byte	0x8f
 1192 0731 2E030000 		.4byte	0x32e
 1193 0735 13000000 		.4byte	.LLST1
 1194 0739 1A       		.uleb128 0x1a
 1195 073a 42000000 		.4byte	.LBB5
 1196 073e 06000000 		.4byte	.LBE5-.LBB5
 1197 0742 54070000 		.4byte	0x754
 1198 0746 1B       		.uleb128 0x1b
 1199 0747 746D7000 		.ascii	"tmp\000"
 1200 074b 01       		.byte	0x1
 1201 074c 8F       		.byte	0x8f
 1202 074d 82000000 		.4byte	0x82
 1203 0751 01       		.uleb128 0x1
 1204 0752 53       		.byte	0x53
 1205 0753 00       		.byte	0
 1206 0754 1A       		.uleb128 0x1a
 1207 0755 4C000000 		.4byte	.LBB6
 1208 0759 06000000 		.4byte	.LBE6-.LBB6
 1209 075d 6F070000 		.4byte	0x76f
 1210 0761 1B       		.uleb128 0x1b
 1211 0762 746D7000 		.ascii	"tmp\000"
 1212 0766 01       		.byte	0x1
 1213 0767 8F       		.byte	0x8f
 1214 0768 82000000 		.4byte	0x82
 1215 076c 01       		.uleb128 0x1
 1216 076d 53       		.byte	0x53
 1217 076e 00       		.byte	0
 1218 076f 1C       		.uleb128 0x1c
 1219 0770 42000000 		.4byte	.LVL13
 1220 0774 5E080000 		.4byte	0x85e
 1221 0778 22       		.uleb128 0x22
 1222 0779 4C000000 		.4byte	.LVL14
 1223 077d 02       		.uleb128 0x2
 1224 077e 75       		.byte	0x75
 1225 077f 00       		.sleb128 0
 1226 0780 1C       		.uleb128 0x1c
 1227 0781 56000000 		.4byte	.LVL15
 1228 0785 65080000 		.4byte	0x865
 1229 0789 00       		.byte	0
 1230 078a 00       		.byte	0
 1231 078b 1C       		.uleb128 0x1c
 1232 078c 06000000 		.4byte	.LVL10
 1233 0790 6C080000 		.4byte	0x86c
 1234 0794 00       		.byte	0
 1235 0795 19       		.uleb128 0x19
 1236 0796 32000000 		.4byte	.LASF102
 1237 079a 08       		.byte	0x8
 1238 079b EE       		.byte	0xee
 1239 079c E2030000 		.4byte	0x3e2
 1240 07a0 19       		.uleb128 0x19
 1241 07a1 61050000 		.4byte	.LASF103
ARM GAS  /tmp/ccsjsM8c.s 			page 23


 1242 07a5 09       		.byte	0x9
 1243 07a6 68       		.byte	0x68
 1244 07a7 3E040000 		.4byte	0x43e
 1245 07ab 19       		.uleb128 0x19
 1246 07ac DD010000 		.4byte	.LASF104
 1247 07b0 0B       		.byte	0xb
 1248 07b1 77       		.byte	0x77
 1249 07b2 B6070000 		.4byte	0x7b6
 1250 07b6 12       		.uleb128 0x12
 1251 07b7 EF050000 		.4byte	0x5ef
 1252 07bb 14       		.uleb128 0x14
 1253 07bc 7F020000 		.4byte	0x27f
 1254 07c0 CB070000 		.4byte	0x7cb
 1255 07c4 15       		.uleb128 0x15
 1256 07c5 27030000 		.4byte	0x327
 1257 07c9 17       		.byte	0x17
 1258 07ca 00       		.byte	0
 1259 07cb 23       		.uleb128 0x23
 1260 07cc 60010000 		.4byte	.LASF105
 1261 07d0 01       		.byte	0x1
 1262 07d1 2A       		.byte	0x2a
 1263 07d2 BB070000 		.4byte	0x7bb
 1264 07d6 05       		.uleb128 0x5
 1265 07d7 03       		.byte	0x3
 1266 07d8 00000000 		.4byte	_idle_thread_wa
 1267 07dc 19       		.uleb128 0x19
 1268 07dd CB040000 		.4byte	.LASF101
 1269 07e1 01       		.byte	0x1
 1270 07e2 50       		.byte	0x50
 1271 07e3 7F020000 		.4byte	0x27f
 1272 07e7 24       		.uleb128 0x24
 1273 07e8 6F050000 		.4byte	.LASF106
 1274 07ec 07       		.byte	0x7
 1275 07ed FB01     		.2byte	0x1fb
 1276 07ef 25       		.uleb128 0x25
 1277 07f0 B8000000 		.4byte	.LASF107
 1278 07f4 09       		.byte	0x9
 1279 07f5 87       		.byte	0x87
 1280 07f6 25       		.uleb128 0x25
 1281 07f7 0B050000 		.4byte	.LASF108
 1282 07fb 08       		.byte	0x8
 1283 07fc F6       		.byte	0xf6
 1284 07fd 25       		.uleb128 0x25
 1285 07fe 14040000 		.4byte	.LASF109
 1286 0802 0C       		.byte	0xc
 1287 0803 4A       		.byte	0x4a
 1288 0804 25       		.uleb128 0x25
 1289 0805 93010000 		.4byte	.LASF110
 1290 0809 0D       		.byte	0xd
 1291 080a 4E       		.byte	0x4e
 1292 080b 25       		.uleb128 0x25
 1293 080c 0F020000 		.4byte	.LASF111
 1294 0810 0E       		.byte	0xe
 1295 0811 EA       		.byte	0xea
 1296 0812 26       		.uleb128 0x26
 1297 0813 B6010000 		.4byte	.LASF113
 1298 0817 06       		.byte	0x6
ARM GAS  /tmp/ccsjsM8c.s 			page 24


 1299 0818 6301     		.2byte	0x163
 1300 081a 41020000 		.4byte	0x241
 1301 081e 2D080000 		.4byte	0x82d
 1302 0822 0E       		.uleb128 0xe
 1303 0823 41020000 		.4byte	0x241
 1304 0827 0E       		.uleb128 0xe
 1305 0828 E0000000 		.4byte	0xe0
 1306 082c 00       		.byte	0
 1307 082d 25       		.uleb128 0x25
 1308 082e 2D050000 		.4byte	.LASF112
 1309 0832 0E       		.byte	0xe
 1310 0833 DF       		.byte	0xdf
 1311 0834 26       		.uleb128 0x26
 1312 0835 63020000 		.4byte	.LASF114
 1313 0839 06       		.byte	0x6
 1314 083a 6901     		.2byte	0x169
 1315 083c 41020000 		.4byte	0x241
 1316 0840 5E080000 		.4byte	0x85e
 1317 0844 0E       		.uleb128 0xe
 1318 0845 7D020000 		.4byte	0x27d
 1319 0849 0E       		.uleb128 0xe
 1320 084a 2C000000 		.4byte	0x2c
 1321 084e 0E       		.uleb128 0xe
 1322 084f E0000000 		.4byte	0xe0
 1323 0853 0E       		.uleb128 0xe
 1324 0854 DE040000 		.4byte	0x4de
 1325 0858 0E       		.uleb128 0xe
 1326 0859 7D020000 		.4byte	0x27d
 1327 085d 00       		.byte	0
 1328 085e 25       		.uleb128 0x25
 1329 085f F2000000 		.4byte	.LASF115
 1330 0863 0E       		.byte	0xe
 1331 0864 E3       		.byte	0xe3
 1332 0865 25       		.uleb128 0x25
 1333 0866 7A050000 		.4byte	.LASF116
 1334 086a 0E       		.byte	0xe
 1335 086b E2       		.byte	0xe2
 1336 086c 25       		.uleb128 0x25
 1337 086d 21020000 		.4byte	.LASF117
 1338 0871 0E       		.byte	0xe
 1339 0872 E6       		.byte	0xe6
 1340 0873 00       		.byte	0
 1341              		.section	.debug_abbrev,"",%progbits
 1342              	.Ldebug_abbrev0:
 1343 0000 01       		.uleb128 0x1
 1344 0001 11       		.uleb128 0x11
 1345 0002 01       		.byte	0x1
 1346 0003 25       		.uleb128 0x25
 1347 0004 0E       		.uleb128 0xe
 1348 0005 13       		.uleb128 0x13
 1349 0006 0B       		.uleb128 0xb
 1350 0007 03       		.uleb128 0x3
 1351 0008 0E       		.uleb128 0xe
 1352 0009 1B       		.uleb128 0x1b
 1353 000a 0E       		.uleb128 0xe
 1354 000b 55       		.uleb128 0x55
 1355 000c 17       		.uleb128 0x17
ARM GAS  /tmp/ccsjsM8c.s 			page 25


 1356 000d 11       		.uleb128 0x11
 1357 000e 01       		.uleb128 0x1
 1358 000f 10       		.uleb128 0x10
 1359 0010 17       		.uleb128 0x17
 1360 0011 00       		.byte	0
 1361 0012 00       		.byte	0
 1362 0013 02       		.uleb128 0x2
 1363 0014 24       		.uleb128 0x24
 1364 0015 00       		.byte	0
 1365 0016 0B       		.uleb128 0xb
 1366 0017 0B       		.uleb128 0xb
 1367 0018 3E       		.uleb128 0x3e
 1368 0019 0B       		.uleb128 0xb
 1369 001a 03       		.uleb128 0x3
 1370 001b 08       		.uleb128 0x8
 1371 001c 00       		.byte	0
 1372 001d 00       		.byte	0
 1373 001e 03       		.uleb128 0x3
 1374 001f 16       		.uleb128 0x16
 1375 0020 00       		.byte	0
 1376 0021 03       		.uleb128 0x3
 1377 0022 0E       		.uleb128 0xe
 1378 0023 3A       		.uleb128 0x3a
 1379 0024 0B       		.uleb128 0xb
 1380 0025 3B       		.uleb128 0x3b
 1381 0026 0B       		.uleb128 0xb
 1382 0027 49       		.uleb128 0x49
 1383 0028 13       		.uleb128 0x13
 1384 0029 00       		.byte	0
 1385 002a 00       		.byte	0
 1386 002b 04       		.uleb128 0x4
 1387 002c 24       		.uleb128 0x24
 1388 002d 00       		.byte	0
 1389 002e 0B       		.uleb128 0xb
 1390 002f 0B       		.uleb128 0xb
 1391 0030 3E       		.uleb128 0x3e
 1392 0031 0B       		.uleb128 0xb
 1393 0032 03       		.uleb128 0x3
 1394 0033 0E       		.uleb128 0xe
 1395 0034 00       		.byte	0
 1396 0035 00       		.byte	0
 1397 0036 05       		.uleb128 0x5
 1398 0037 13       		.uleb128 0x13
 1399 0038 01       		.byte	0x1
 1400 0039 03       		.uleb128 0x3
 1401 003a 0E       		.uleb128 0xe
 1402 003b 0B       		.uleb128 0xb
 1403 003c 0B       		.uleb128 0xb
 1404 003d 3A       		.uleb128 0x3a
 1405 003e 0B       		.uleb128 0xb
 1406 003f 3B       		.uleb128 0x3b
 1407 0040 0B       		.uleb128 0xb
 1408 0041 01       		.uleb128 0x1
 1409 0042 13       		.uleb128 0x13
 1410 0043 00       		.byte	0
 1411 0044 00       		.byte	0
 1412 0045 06       		.uleb128 0x6
ARM GAS  /tmp/ccsjsM8c.s 			page 26


 1413 0046 0D       		.uleb128 0xd
 1414 0047 00       		.byte	0
 1415 0048 03       		.uleb128 0x3
 1416 0049 0E       		.uleb128 0xe
 1417 004a 3A       		.uleb128 0x3a
 1418 004b 0B       		.uleb128 0xb
 1419 004c 3B       		.uleb128 0x3b
 1420 004d 0B       		.uleb128 0xb
 1421 004e 49       		.uleb128 0x49
 1422 004f 13       		.uleb128 0x13
 1423 0050 38       		.uleb128 0x38
 1424 0051 0B       		.uleb128 0xb
 1425 0052 00       		.byte	0
 1426 0053 00       		.byte	0
 1427 0054 07       		.uleb128 0x7
 1428 0055 0D       		.uleb128 0xd
 1429 0056 00       		.byte	0
 1430 0057 03       		.uleb128 0x3
 1431 0058 08       		.uleb128 0x8
 1432 0059 3A       		.uleb128 0x3a
 1433 005a 0B       		.uleb128 0xb
 1434 005b 3B       		.uleb128 0x3b
 1435 005c 0B       		.uleb128 0xb
 1436 005d 49       		.uleb128 0x49
 1437 005e 13       		.uleb128 0x13
 1438 005f 38       		.uleb128 0x38
 1439 0060 0B       		.uleb128 0xb
 1440 0061 00       		.byte	0
 1441 0062 00       		.byte	0
 1442 0063 08       		.uleb128 0x8
 1443 0064 13       		.uleb128 0x13
 1444 0065 01       		.byte	0x1
 1445 0066 0B       		.uleb128 0xb
 1446 0067 0B       		.uleb128 0xb
 1447 0068 3A       		.uleb128 0x3a
 1448 0069 0B       		.uleb128 0xb
 1449 006a 3B       		.uleb128 0x3b
 1450 006b 0B       		.uleb128 0xb
 1451 006c 01       		.uleb128 0x1
 1452 006d 13       		.uleb128 0x13
 1453 006e 00       		.byte	0
 1454 006f 00       		.byte	0
 1455 0070 09       		.uleb128 0x9
 1456 0071 0F       		.uleb128 0xf
 1457 0072 00       		.byte	0
 1458 0073 0B       		.uleb128 0xb
 1459 0074 0B       		.uleb128 0xb
 1460 0075 49       		.uleb128 0x49
 1461 0076 13       		.uleb128 0x13
 1462 0077 00       		.byte	0
 1463 0078 00       		.byte	0
 1464 0079 0A       		.uleb128 0xa
 1465 007a 0F       		.uleb128 0xf
 1466 007b 00       		.byte	0
 1467 007c 0B       		.uleb128 0xb
 1468 007d 0B       		.uleb128 0xb
 1469 007e 00       		.byte	0
ARM GAS  /tmp/ccsjsM8c.s 			page 27


 1470 007f 00       		.byte	0
 1471 0080 0B       		.uleb128 0xb
 1472 0081 13       		.uleb128 0x13
 1473 0082 01       		.byte	0x1
 1474 0083 03       		.uleb128 0x3
 1475 0084 0E       		.uleb128 0xe
 1476 0085 0B       		.uleb128 0xb
 1477 0086 0B       		.uleb128 0xb
 1478 0087 3A       		.uleb128 0x3a
 1479 0088 0B       		.uleb128 0xb
 1480 0089 3B       		.uleb128 0x3b
 1481 008a 05       		.uleb128 0x5
 1482 008b 01       		.uleb128 0x1
 1483 008c 13       		.uleb128 0x13
 1484 008d 00       		.byte	0
 1485 008e 00       		.byte	0
 1486 008f 0C       		.uleb128 0xc
 1487 0090 0D       		.uleb128 0xd
 1488 0091 00       		.byte	0
 1489 0092 03       		.uleb128 0x3
 1490 0093 08       		.uleb128 0x8
 1491 0094 3A       		.uleb128 0x3a
 1492 0095 0B       		.uleb128 0xb
 1493 0096 3B       		.uleb128 0x3b
 1494 0097 05       		.uleb128 0x5
 1495 0098 49       		.uleb128 0x49
 1496 0099 13       		.uleb128 0x13
 1497 009a 38       		.uleb128 0x38
 1498 009b 0B       		.uleb128 0xb
 1499 009c 00       		.byte	0
 1500 009d 00       		.byte	0
 1501 009e 0D       		.uleb128 0xd
 1502 009f 15       		.uleb128 0x15
 1503 00a0 01       		.byte	0x1
 1504 00a1 27       		.uleb128 0x27
 1505 00a2 19       		.uleb128 0x19
 1506 00a3 01       		.uleb128 0x1
 1507 00a4 13       		.uleb128 0x13
 1508 00a5 00       		.byte	0
 1509 00a6 00       		.byte	0
 1510 00a7 0E       		.uleb128 0xe
 1511 00a8 05       		.uleb128 0x5
 1512 00a9 00       		.byte	0
 1513 00aa 49       		.uleb128 0x49
 1514 00ab 13       		.uleb128 0x13
 1515 00ac 00       		.byte	0
 1516 00ad 00       		.byte	0
 1517 00ae 0F       		.uleb128 0xf
 1518 00af 35       		.uleb128 0x35
 1519 00b0 00       		.byte	0
 1520 00b1 49       		.uleb128 0x49
 1521 00b2 13       		.uleb128 0x13
 1522 00b3 00       		.byte	0
 1523 00b4 00       		.byte	0
 1524 00b5 10       		.uleb128 0x10
 1525 00b6 17       		.uleb128 0x17
 1526 00b7 01       		.byte	0x1
ARM GAS  /tmp/ccsjsM8c.s 			page 28


 1527 00b8 0B       		.uleb128 0xb
 1528 00b9 0B       		.uleb128 0xb
 1529 00ba 3A       		.uleb128 0x3a
 1530 00bb 0B       		.uleb128 0xb
 1531 00bc 3B       		.uleb128 0x3b
 1532 00bd 0B       		.uleb128 0xb
 1533 00be 01       		.uleb128 0x1
 1534 00bf 13       		.uleb128 0x13
 1535 00c0 00       		.byte	0
 1536 00c1 00       		.byte	0
 1537 00c2 11       		.uleb128 0x11
 1538 00c3 0D       		.uleb128 0xd
 1539 00c4 00       		.byte	0
 1540 00c5 03       		.uleb128 0x3
 1541 00c6 0E       		.uleb128 0xe
 1542 00c7 3A       		.uleb128 0x3a
 1543 00c8 0B       		.uleb128 0xb
 1544 00c9 3B       		.uleb128 0x3b
 1545 00ca 0B       		.uleb128 0xb
 1546 00cb 49       		.uleb128 0x49
 1547 00cc 13       		.uleb128 0x13
 1548 00cd 00       		.byte	0
 1549 00ce 00       		.byte	0
 1550 00cf 12       		.uleb128 0x12
 1551 00d0 26       		.uleb128 0x26
 1552 00d1 00       		.byte	0
 1553 00d2 49       		.uleb128 0x49
 1554 00d3 13       		.uleb128 0x13
 1555 00d4 00       		.byte	0
 1556 00d5 00       		.byte	0
 1557 00d6 13       		.uleb128 0x13
 1558 00d7 15       		.uleb128 0x15
 1559 00d8 01       		.byte	0x1
 1560 00d9 27       		.uleb128 0x27
 1561 00da 19       		.uleb128 0x19
 1562 00db 49       		.uleb128 0x49
 1563 00dc 13       		.uleb128 0x13
 1564 00dd 01       		.uleb128 0x1
 1565 00de 13       		.uleb128 0x13
 1566 00df 00       		.byte	0
 1567 00e0 00       		.byte	0
 1568 00e1 14       		.uleb128 0x14
 1569 00e2 01       		.uleb128 0x1
 1570 00e3 01       		.byte	0x1
 1571 00e4 49       		.uleb128 0x49
 1572 00e5 13       		.uleb128 0x13
 1573 00e6 01       		.uleb128 0x1
 1574 00e7 13       		.uleb128 0x13
 1575 00e8 00       		.byte	0
 1576 00e9 00       		.byte	0
 1577 00ea 15       		.uleb128 0x15
 1578 00eb 21       		.uleb128 0x21
 1579 00ec 00       		.byte	0
 1580 00ed 49       		.uleb128 0x49
 1581 00ee 13       		.uleb128 0x13
 1582 00ef 2F       		.uleb128 0x2f
 1583 00f0 0B       		.uleb128 0xb
ARM GAS  /tmp/ccsjsM8c.s 			page 29


 1584 00f1 00       		.byte	0
 1585 00f2 00       		.byte	0
 1586 00f3 16       		.uleb128 0x16
 1587 00f4 2E       		.uleb128 0x2e
 1588 00f5 01       		.byte	0x1
 1589 00f6 3F       		.uleb128 0x3f
 1590 00f7 19       		.uleb128 0x19
 1591 00f8 03       		.uleb128 0x3
 1592 00f9 0E       		.uleb128 0xe
 1593 00fa 3A       		.uleb128 0x3a
 1594 00fb 0B       		.uleb128 0xb
 1595 00fc 3B       		.uleb128 0x3b
 1596 00fd 0B       		.uleb128 0xb
 1597 00fe 27       		.uleb128 0x27
 1598 00ff 19       		.uleb128 0x19
 1599 0100 11       		.uleb128 0x11
 1600 0101 01       		.uleb128 0x1
 1601 0102 12       		.uleb128 0x12
 1602 0103 06       		.uleb128 0x6
 1603 0104 40       		.uleb128 0x40
 1604 0105 18       		.uleb128 0x18
 1605 0106 9742     		.uleb128 0x2117
 1606 0108 19       		.uleb128 0x19
 1607 0109 01       		.uleb128 0x1
 1608 010a 13       		.uleb128 0x13
 1609 010b 00       		.byte	0
 1610 010c 00       		.byte	0
 1611 010d 17       		.uleb128 0x17
 1612 010e 05       		.uleb128 0x5
 1613 010f 00       		.byte	0
 1614 0110 03       		.uleb128 0x3
 1615 0111 08       		.uleb128 0x8
 1616 0112 3A       		.uleb128 0x3a
 1617 0113 0B       		.uleb128 0xb
 1618 0114 3B       		.uleb128 0x3b
 1619 0115 0B       		.uleb128 0xb
 1620 0116 49       		.uleb128 0x49
 1621 0117 13       		.uleb128 0x13
 1622 0118 02       		.uleb128 0x2
 1623 0119 18       		.uleb128 0x18
 1624 011a 00       		.byte	0
 1625 011b 00       		.byte	0
 1626 011c 18       		.uleb128 0x18
 1627 011d 34       		.uleb128 0x34
 1628 011e 00       		.byte	0
 1629 011f 03       		.uleb128 0x3
 1630 0120 0E       		.uleb128 0xe
 1631 0121 3A       		.uleb128 0x3a
 1632 0122 0B       		.uleb128 0xb
 1633 0123 3B       		.uleb128 0x3b
 1634 0124 0B       		.uleb128 0xb
 1635 0125 49       		.uleb128 0x49
 1636 0126 13       		.uleb128 0x13
 1637 0127 02       		.uleb128 0x2
 1638 0128 18       		.uleb128 0x18
 1639 0129 00       		.byte	0
 1640 012a 00       		.byte	0
ARM GAS  /tmp/ccsjsM8c.s 			page 30


 1641 012b 19       		.uleb128 0x19
 1642 012c 34       		.uleb128 0x34
 1643 012d 00       		.byte	0
 1644 012e 03       		.uleb128 0x3
 1645 012f 0E       		.uleb128 0xe
 1646 0130 3A       		.uleb128 0x3a
 1647 0131 0B       		.uleb128 0xb
 1648 0132 3B       		.uleb128 0x3b
 1649 0133 0B       		.uleb128 0xb
 1650 0134 49       		.uleb128 0x49
 1651 0135 13       		.uleb128 0x13
 1652 0136 3F       		.uleb128 0x3f
 1653 0137 19       		.uleb128 0x19
 1654 0138 3C       		.uleb128 0x3c
 1655 0139 19       		.uleb128 0x19
 1656 013a 00       		.byte	0
 1657 013b 00       		.byte	0
 1658 013c 1A       		.uleb128 0x1a
 1659 013d 0B       		.uleb128 0xb
 1660 013e 01       		.byte	0x1
 1661 013f 11       		.uleb128 0x11
 1662 0140 01       		.uleb128 0x1
 1663 0141 12       		.uleb128 0x12
 1664 0142 06       		.uleb128 0x6
 1665 0143 01       		.uleb128 0x1
 1666 0144 13       		.uleb128 0x13
 1667 0145 00       		.byte	0
 1668 0146 00       		.byte	0
 1669 0147 1B       		.uleb128 0x1b
 1670 0148 34       		.uleb128 0x34
 1671 0149 00       		.byte	0
 1672 014a 03       		.uleb128 0x3
 1673 014b 08       		.uleb128 0x8
 1674 014c 3A       		.uleb128 0x3a
 1675 014d 0B       		.uleb128 0xb
 1676 014e 3B       		.uleb128 0x3b
 1677 014f 0B       		.uleb128 0xb
 1678 0150 49       		.uleb128 0x49
 1679 0151 13       		.uleb128 0x13
 1680 0152 02       		.uleb128 0x2
 1681 0153 18       		.uleb128 0x18
 1682 0154 00       		.byte	0
 1683 0155 00       		.byte	0
 1684 0156 1C       		.uleb128 0x1c
 1685 0157 898201   		.uleb128 0x4109
 1686 015a 00       		.byte	0
 1687 015b 11       		.uleb128 0x11
 1688 015c 01       		.uleb128 0x1
 1689 015d 31       		.uleb128 0x31
 1690 015e 13       		.uleb128 0x13
 1691 015f 00       		.byte	0
 1692 0160 00       		.byte	0
 1693 0161 1D       		.uleb128 0x1d
 1694 0162 898201   		.uleb128 0x4109
 1695 0165 01       		.byte	0x1
 1696 0166 11       		.uleb128 0x11
 1697 0167 01       		.uleb128 0x1
ARM GAS  /tmp/ccsjsM8c.s 			page 31


 1698 0168 31       		.uleb128 0x31
 1699 0169 13       		.uleb128 0x13
 1700 016a 01       		.uleb128 0x1
 1701 016b 13       		.uleb128 0x13
 1702 016c 00       		.byte	0
 1703 016d 00       		.byte	0
 1704 016e 1E       		.uleb128 0x1e
 1705 016f 8A8201   		.uleb128 0x410a
 1706 0172 00       		.byte	0
 1707 0173 02       		.uleb128 0x2
 1708 0174 18       		.uleb128 0x18
 1709 0175 9142     		.uleb128 0x2111
 1710 0177 18       		.uleb128 0x18
 1711 0178 00       		.byte	0
 1712 0179 00       		.byte	0
 1713 017a 1F       		.uleb128 0x1f
 1714 017b 898201   		.uleb128 0x4109
 1715 017e 01       		.byte	0x1
 1716 017f 11       		.uleb128 0x11
 1717 0180 01       		.uleb128 0x1
 1718 0181 31       		.uleb128 0x31
 1719 0182 13       		.uleb128 0x13
 1720 0183 00       		.byte	0
 1721 0184 00       		.byte	0
 1722 0185 20       		.uleb128 0x20
 1723 0186 34       		.uleb128 0x34
 1724 0187 00       		.byte	0
 1725 0188 03       		.uleb128 0x3
 1726 0189 08       		.uleb128 0x8
 1727 018a 3A       		.uleb128 0x3a
 1728 018b 0B       		.uleb128 0xb
 1729 018c 3B       		.uleb128 0x3b
 1730 018d 0B       		.uleb128 0xb
 1731 018e 49       		.uleb128 0x49
 1732 018f 13       		.uleb128 0x13
 1733 0190 02       		.uleb128 0x2
 1734 0191 17       		.uleb128 0x17
 1735 0192 00       		.byte	0
 1736 0193 00       		.byte	0
 1737 0194 21       		.uleb128 0x21
 1738 0195 0B       		.uleb128 0xb
 1739 0196 01       		.byte	0x1
 1740 0197 11       		.uleb128 0x11
 1741 0198 01       		.uleb128 0x1
 1742 0199 12       		.uleb128 0x12
 1743 019a 06       		.uleb128 0x6
 1744 019b 00       		.byte	0
 1745 019c 00       		.byte	0
 1746 019d 22       		.uleb128 0x22
 1747 019e 898201   		.uleb128 0x4109
 1748 01a1 00       		.byte	0
 1749 01a2 11       		.uleb128 0x11
 1750 01a3 01       		.uleb128 0x1
 1751 01a4 9342     		.uleb128 0x2113
 1752 01a6 18       		.uleb128 0x18
 1753 01a7 00       		.byte	0
 1754 01a8 00       		.byte	0
ARM GAS  /tmp/ccsjsM8c.s 			page 32


 1755 01a9 23       		.uleb128 0x23
 1756 01aa 34       		.uleb128 0x34
 1757 01ab 00       		.byte	0
 1758 01ac 03       		.uleb128 0x3
 1759 01ad 0E       		.uleb128 0xe
 1760 01ae 3A       		.uleb128 0x3a
 1761 01af 0B       		.uleb128 0xb
 1762 01b0 3B       		.uleb128 0x3b
 1763 01b1 0B       		.uleb128 0xb
 1764 01b2 49       		.uleb128 0x49
 1765 01b3 13       		.uleb128 0x13
 1766 01b4 3F       		.uleb128 0x3f
 1767 01b5 19       		.uleb128 0x19
 1768 01b6 02       		.uleb128 0x2
 1769 01b7 18       		.uleb128 0x18
 1770 01b8 00       		.byte	0
 1771 01b9 00       		.byte	0
 1772 01ba 24       		.uleb128 0x24
 1773 01bb 2E       		.uleb128 0x2e
 1774 01bc 00       		.byte	0
 1775 01bd 3F       		.uleb128 0x3f
 1776 01be 19       		.uleb128 0x19
 1777 01bf 03       		.uleb128 0x3
 1778 01c0 0E       		.uleb128 0xe
 1779 01c1 3A       		.uleb128 0x3a
 1780 01c2 0B       		.uleb128 0xb
 1781 01c3 3B       		.uleb128 0x3b
 1782 01c4 05       		.uleb128 0x5
 1783 01c5 27       		.uleb128 0x27
 1784 01c6 19       		.uleb128 0x19
 1785 01c7 3C       		.uleb128 0x3c
 1786 01c8 19       		.uleb128 0x19
 1787 01c9 00       		.byte	0
 1788 01ca 00       		.byte	0
 1789 01cb 25       		.uleb128 0x25
 1790 01cc 2E       		.uleb128 0x2e
 1791 01cd 00       		.byte	0
 1792 01ce 3F       		.uleb128 0x3f
 1793 01cf 19       		.uleb128 0x19
 1794 01d0 03       		.uleb128 0x3
 1795 01d1 0E       		.uleb128 0xe
 1796 01d2 3A       		.uleb128 0x3a
 1797 01d3 0B       		.uleb128 0xb
 1798 01d4 3B       		.uleb128 0x3b
 1799 01d5 0B       		.uleb128 0xb
 1800 01d6 27       		.uleb128 0x27
 1801 01d7 19       		.uleb128 0x19
 1802 01d8 3C       		.uleb128 0x3c
 1803 01d9 19       		.uleb128 0x19
 1804 01da 00       		.byte	0
 1805 01db 00       		.byte	0
 1806 01dc 26       		.uleb128 0x26
 1807 01dd 2E       		.uleb128 0x2e
 1808 01de 01       		.byte	0x1
 1809 01df 3F       		.uleb128 0x3f
 1810 01e0 19       		.uleb128 0x19
 1811 01e1 03       		.uleb128 0x3
ARM GAS  /tmp/ccsjsM8c.s 			page 33


 1812 01e2 0E       		.uleb128 0xe
 1813 01e3 3A       		.uleb128 0x3a
 1814 01e4 0B       		.uleb128 0xb
 1815 01e5 3B       		.uleb128 0x3b
 1816 01e6 05       		.uleb128 0x5
 1817 01e7 27       		.uleb128 0x27
 1818 01e8 19       		.uleb128 0x19
 1819 01e9 49       		.uleb128 0x49
 1820 01ea 13       		.uleb128 0x13
 1821 01eb 3C       		.uleb128 0x3c
 1822 01ec 19       		.uleb128 0x19
 1823 01ed 01       		.uleb128 0x1
 1824 01ee 13       		.uleb128 0x13
 1825 01ef 00       		.byte	0
 1826 01f0 00       		.byte	0
 1827 01f1 00       		.byte	0
 1828              		.section	.debug_loc,"",%progbits
 1829              	.Ldebug_loc0:
 1830              	.LLST0:
 1831 0000 30000000 		.4byte	.LVL11
 1832 0004 60000000 		.4byte	.LVL17
 1833 0008 0100     		.2byte	0x1
 1834 000a 54       		.byte	0x54
 1835 000b 00000000 		.4byte	0
 1836 000f 00000000 		.4byte	0
 1837              	.LLST1:
 1838 0013 38000000 		.4byte	.LVL12
 1839 0017 60000000 		.4byte	.LVL17
 1840 001b 0100     		.2byte	0x1
 1841 001d 55       		.byte	0x55
 1842 001e 00000000 		.4byte	0
 1843 0022 00000000 		.4byte	0
 1844              		.section	.debug_aranges,"",%progbits
 1845 0000 2C000000 		.4byte	0x2c
 1846 0004 0200     		.2byte	0x2
 1847 0006 00000000 		.4byte	.Ldebug_info0
 1848 000a 04       		.byte	0x4
 1849 000b 00       		.byte	0
 1850 000c 0000     		.2byte	0
 1851 000e 0000     		.2byte	0
 1852 0010 00000000 		.4byte	.LFB7
 1853 0014 14000000 		.4byte	.LFE7-.LFB7
 1854 0018 00000000 		.4byte	.LFB8
 1855 001c 74000000 		.4byte	.LFE8-.LFB8
 1856 0020 00000000 		.4byte	.LFB9
 1857 0024 6C000000 		.4byte	.LFE9-.LFB9
 1858 0028 00000000 		.4byte	0
 1859 002c 00000000 		.4byte	0
 1860              		.section	.debug_ranges,"",%progbits
 1861              	.Ldebug_ranges0:
 1862 0000 00000000 		.4byte	.LFB7
 1863 0004 14000000 		.4byte	.LFE7
 1864 0008 00000000 		.4byte	.LFB8
 1865 000c 74000000 		.4byte	.LFE8
 1866 0010 00000000 		.4byte	.LFB9
 1867 0014 6C000000 		.4byte	.LFE9
 1868 0018 00000000 		.4byte	0
ARM GAS  /tmp/ccsjsM8c.s 			page 34


 1869 001c 00000000 		.4byte	0
 1870              		.section	.debug_line,"",%progbits
 1871              	.Ldebug_line0:
 1872 0000 07020000 		.section	.debug_str,"MS",%progbits,1
 1872      0200A901 
 1872      00000201 
 1872      FB0E0D00 
 1872      01010101 
 1873              	.LASF77:
 1874 0000 7466756E 		.ascii	"tfunc_t\000"
 1874      635F7400 
 1875              	.LASF88:
 1876 0008 63665F6F 		.ascii	"cf_off_older\000"
 1876      66665F6F 
 1876      6C646572 
 1876      00
 1877              	.LASF40:
 1878 0015 705F6D73 		.ascii	"p_msg\000"
 1878      6700
 1879              	.LASF2:
 1880 001b 73697A65 		.ascii	"size_t\000"
 1880      5F7400
 1881              	.LASF72:
 1882 0022 7264796D 		.ascii	"rdymsg\000"
 1882      736700
 1883              	.LASF13:
 1884 0029 75696E74 		.ascii	"uint64_t\000"
 1884      36345F74 
 1884      00
 1885              	.LASF102:
 1886 0032 76746C69 		.ascii	"vtlist\000"
 1886      737400
 1887              	.LASF100:
 1888 0039 63685379 		.ascii	"chSysTimerHandlerI\000"
 1888      7354696D 
 1888      65724861 
 1888      6E646C65 
 1888      724900
 1889              	.LASF14:
 1890 004c 6C6F6E67 		.ascii	"long long unsigned int\000"
 1890      206C6F6E 
 1890      6720756E 
 1890      7369676E 
 1890      65642069 
 1891              	.LASF84:
 1892 0063 63685F74 		.ascii	"ch_threadsize\000"
 1892      68726561 
 1892      6473697A 
 1892      6500
 1893              	.LASF73:
 1894 0071 65786974 		.ascii	"exitcode\000"
 1894      636F6465 
 1894      00
 1895              	.LASF99:
 1896 007a 6D61696E 		.ascii	"mainthread\000"
 1896      74687265 
 1896      616400
ARM GAS  /tmp/ccsjsM8c.s 			page 35


 1897              	.LASF27:
 1898 0085 705F7072 		.ascii	"p_prio\000"
 1898      696F00
 1899              	.LASF91:
 1900 008c 63665F6F 		.ascii	"cf_off_state\000"
 1900      66665F73 
 1900      74617465 
 1900      00
 1901              	.LASF119:
 1902 0099 2E2E2F2E 		.ascii	"../../../os/kernel/src/chsys.c\000"
 1902      2E2F2E2E 
 1902      2F6F732F 
 1902      6B65726E 
 1902      656C2F73 
 1903              	.LASF107:
 1904 00b8 5F736368 		.ascii	"_scheduler_init\000"
 1904      6564756C 
 1904      65725F69 
 1904      6E697400 
 1905              	.LASF12:
 1906 00c8 6C6F6E67 		.ascii	"long long int\000"
 1906      206C6F6E 
 1906      6720696E 
 1906      7400
 1907              	.LASF1:
 1908 00d6 7369676E 		.ascii	"signed char\000"
 1908      65642063 
 1908      68617200 
 1909              	.LASF90:
 1910 00e2 63665F6F 		.ascii	"cf_off_stklimit\000"
 1910      66665F73 
 1910      746B6C69 
 1910      6D697400 
 1911              	.LASF115:
 1912 00f2 6462675F 		.ascii	"dbg_check_unlock_from_isr\000"
 1912      63686563 
 1912      6B5F756E 
 1912      6C6F636B 
 1912      5F66726F 
 1913              	.LASF92:
 1914 010c 63665F6F 		.ascii	"cf_off_flags\000"
 1914      66665F66 
 1914      6C616773 
 1914      00
 1915              	.LASF44:
 1916 0119 705F6D70 		.ascii	"p_mpool\000"
 1916      6F6F6C00 
 1917              	.LASF69:
 1918 0121 6D5F7175 		.ascii	"m_queue\000"
 1918      65756500 
 1919              	.LASF19:
 1920 0129 74736C69 		.ascii	"tslices_t\000"
 1920      6365735F 
 1920      7400
 1921              	.LASF9:
 1922 0133 6C6F6E67 		.ascii	"long int\000"
 1922      20696E74 
ARM GAS  /tmp/ccsjsM8c.s 			page 36


 1922      00
 1923              	.LASF17:
 1924 013c 74737461 		.ascii	"tstate_t\000"
 1924      74655F74 
 1924      00
 1925              	.LASF6:
 1926 0145 75696E74 		.ascii	"uint16_t\000"
 1926      31365F74 
 1926      00
 1927              	.LASF96:
 1928 014e 63686465 		.ascii	"chdebug_t\000"
 1928      6275675F 
 1928      7400
 1929              	.LASF29:
 1930 0158 705F6E65 		.ascii	"p_newer\000"
 1930      77657200 
 1931              	.LASF105:
 1932 0160 5F69646C 		.ascii	"_idle_thread_wa\000"
 1932      655F7468 
 1932      72656164 
 1932      5F776100 
 1933              	.LASF64:
 1934 0170 725F6E65 		.ascii	"r_newer\000"
 1934      77657200 
 1935              	.LASF47:
 1936 0178 72656761 		.ascii	"regarm_t\000"
 1936      726D5F74 
 1936      00
 1937              	.LASF55:
 1938 0181 76745F70 		.ascii	"vt_prev\000"
 1938      72657600 
 1939              	.LASF98:
 1940 0189 63685379 		.ascii	"chSysInit\000"
 1940      73496E69 
 1940      7400
 1941              	.LASF110:
 1942 0193 5F686561 		.ascii	"_heap_init\000"
 1942      705F696E 
 1942      697400
 1943              	.LASF32:
 1944 019e 705F7374 		.ascii	"p_stklimit\000"
 1944      6B6C696D 
 1944      697400
 1945              	.LASF0:
 1946 01a9 756E7369 		.ascii	"unsigned int\000"
 1946      676E6564 
 1946      20696E74 
 1946      00
 1947              	.LASF113:
 1948 01b6 5F746872 		.ascii	"_thread_init\000"
 1948      6561645F 
 1948      696E6974 
 1948      00
 1949              	.LASF54:
 1950 01c3 76745F6E 		.ascii	"vt_next\000"
 1950      65787400 
 1951              	.LASF11:
ARM GAS  /tmp/ccsjsM8c.s 			page 37


 1952 01cb 6C6F6E67 		.ascii	"long unsigned int\000"
 1952      20756E73 
 1952      69676E65 
 1952      6420696E 
 1952      7400
 1953              	.LASF104:
 1954 01dd 63685F64 		.ascii	"ch_debug\000"
 1954      65627567 
 1954      00
 1955              	.LASF78:
 1956 01e6 63685F69 		.ascii	"ch_identifier\000"
 1956      64656E74 
 1956      69666965 
 1956      7200
 1957              	.LASF50:
 1958 01f4 636F6E74 		.ascii	"context\000"
 1958      65787400 
 1959              	.LASF7:
 1960 01fc 73686F72 		.ascii	"short unsigned int\000"
 1960      7420756E 
 1960      7369676E 
 1960      65642069 
 1960      6E7400
 1961              	.LASF111:
 1962 020f 5F747261 		.ascii	"_trace_init\000"
 1962      63655F69 
 1962      6E697400 
 1963              	.LASF21:
 1964 021b 6D73675F 		.ascii	"msg_t\000"
 1964      7400
 1965              	.LASF117:
 1966 0221 63684462 		.ascii	"chDbgCheckClassI\000"
 1966      67436865 
 1966      636B436C 
 1966      61737349 
 1966      00
 1967              	.LASF16:
 1968 0232 746D6F64 		.ascii	"tmode_t\000"
 1968      655F7400 
 1969              	.LASF46:
 1970 023a 54687265 		.ascii	"ThreadsList\000"
 1970      6164734C 
 1970      69737400 
 1971              	.LASF22:
 1972 0246 6576656E 		.ascii	"eventmask_t\000"
 1972      746D6173 
 1972      6B5F7400 
 1973              	.LASF68:
 1974 0252 4D757465 		.ascii	"Mutex\000"
 1974      7800
 1975              	.LASF48:
 1976 0258 73746B61 		.ascii	"stkalign_t\000"
 1976      6C69676E 
 1976      5F7400
 1977              	.LASF114:
 1978 0263 63685468 		.ascii	"chThdCreateStatic\000"
 1978      64437265 
ARM GAS  /tmp/ccsjsM8c.s 			page 38


 1978      61746553 
 1978      74617469 
 1978      6300
 1979              	.LASF79:
 1980 0275 63685F7A 		.ascii	"ch_zero\000"
 1980      65726F00 
 1981              	.LASF93:
 1982 027d 63665F6F 		.ascii	"cf_off_refs\000"
 1982      66665F72 
 1982      65667300 
 1983              	.LASF56:
 1984 0289 76745F74 		.ascii	"vt_time\000"
 1984      696D6500 
 1985              	.LASF51:
 1986 0291 73697A65 		.ascii	"sizetype\000"
 1986      74797065 
 1986      00
 1987              	.LASF57:
 1988 029a 76745F66 		.ascii	"vt_func\000"
 1988      756E6300 
 1989              	.LASF83:
 1990 02a2 63685F74 		.ascii	"ch_timesize\000"
 1990      696D6573 
 1990      697A6500 
 1991              	.LASF89:
 1992 02ae 63665F6F 		.ascii	"cf_off_name\000"
 1992      66665F6E 
 1992      616D6500 
 1993              	.LASF30:
 1994 02ba 705F6F6C 		.ascii	"p_older\000"
 1994      64657200 
 1995              	.LASF63:
 1996 02c2 725F6374 		.ascii	"r_ctx\000"
 1996      7800
 1997              	.LASF45:
 1998 02c8 54687265 		.ascii	"ThreadsQueue\000"
 1998      61647351 
 1998      75657565 
 1998      00
 1999              	.LASF80:
 2000 02d5 63685F73 		.ascii	"ch_size\000"
 2000      697A6500 
 2001              	.LASF66:
 2002 02dd 725F6375 		.ascii	"r_current\000"
 2002      7272656E 
 2002      7400
 2003              	.LASF65:
 2004 02e7 725F6F6C 		.ascii	"r_older\000"
 2004      64657200 
 2005              	.LASF97:
 2006 02ef 5F69646C 		.ascii	"_idle_thread\000"
 2006      655F7468 
 2006      72656164 
 2006      00
 2007              	.LASF18:
 2008 02fc 74726566 		.ascii	"trefs_t\000"
 2008      735F7400 
ARM GAS  /tmp/ccsjsM8c.s 			page 39


 2009              	.LASF82:
 2010 0304 63685F70 		.ascii	"ch_ptrsize\000"
 2010      74727369 
 2010      7A6500
 2011              	.LASF26:
 2012 030f 705F7072 		.ascii	"p_prev\000"
 2012      657600
 2013              	.LASF20:
 2014 0316 74707269 		.ascii	"tprio_t\000"
 2014      6F5F7400 
 2015              	.LASF118:
 2016 031e 474E5520 		.ascii	"GNU C 4.8.3 20131129 (release) [ARM/embedded-4_8-br"
 2016      4320342E 
 2016      382E3320 
 2016      32303133 
 2016      31313239 
 2017 0351 616E6368 		.ascii	"anch revision 205641] -mcpu=cortex-m4 -mno-thumb-in"
 2017      20726576 
 2017      6973696F 
 2017      6E203230 
 2017      35363431 
 2018 0384 74657277 		.ascii	"terwork -mthumb -ggdb -O2 -fomit-frame-pointer -fal"
 2018      6F726B20 
 2018      2D6D7468 
 2018      756D6220 
 2018      2D676764 
 2019 03b7 69676E2D 		.ascii	"ign-functions=16 -ffunction-sections -fdata-section"
 2019      66756E63 
 2019      74696F6E 
 2019      733D3136 
 2019      202D6666 
 2020 03ea 73202D66 		.ascii	"s -fno-common\000"
 2020      6E6F2D63 
 2020      6F6D6D6F 
 2020      6E00
 2021              	.LASF15:
 2022 03f8 5F426F6F 		.ascii	"_Bool\000"
 2022      6C00
 2023              	.LASF8:
 2024 03fe 696E7433 		.ascii	"int32_t\000"
 2024      325F7400 
 2025              	.LASF4:
 2026 0406 756E7369 		.ascii	"unsigned char\000"
 2026      676E6564 
 2026      20636861 
 2026      7200
 2027              	.LASF109:
 2028 0414 5F636F72 		.ascii	"_core_init\000"
 2028      655F696E 
 2028      697400
 2029              	.LASF42:
 2030 041f 705F6D74 		.ascii	"p_mtxlist\000"
 2030      786C6973 
 2030      7400
 2031              	.LASF5:
 2032 0429 73686F72 		.ascii	"short int\000"
 2032      7420696E 
ARM GAS  /tmp/ccsjsM8c.s 			page 40


 2032      7400
 2033              	.LASF33:
 2034 0433 705F7374 		.ascii	"p_state\000"
 2034      61746500 
 2035              	.LASF36:
 2036 043b 705F7072 		.ascii	"p_preempt\000"
 2036      65656D70 
 2036      7400
 2037              	.LASF95:
 2038 0445 63665F6F 		.ascii	"cf_off_time\000"
 2038      66665F74 
 2038      696D6500 
 2039              	.LASF62:
 2040 0451 725F7072 		.ascii	"r_prio\000"
 2040      696F00
 2041              	.LASF75:
 2042 0458 65776D61 		.ascii	"ewmask\000"
 2042      736B00
 2043              	.LASF25:
 2044 045f 705F6E65 		.ascii	"p_next\000"
 2044      787400
 2045              	.LASF94:
 2046 0466 63665F6F 		.ascii	"cf_off_preempt\000"
 2046      66665F70 
 2046      7265656D 
 2046      707400
 2047              	.LASF34:
 2048 0475 705F666C 		.ascii	"p_flags\000"
 2048      61677300 
 2049              	.LASF24:
 2050 047d 54687265 		.ascii	"Thread\000"
 2050      616400
 2051              	.LASF87:
 2052 0484 63665F6F 		.ascii	"cf_off_newer\000"
 2052      66665F6E 
 2052      65776572 
 2052      00
 2053              	.LASF41:
 2054 0491 705F6570 		.ascii	"p_epending\000"
 2054      656E6469 
 2054      6E6700
 2055              	.LASF10:
 2056 049c 75696E74 		.ascii	"uint32_t\000"
 2056      33325F74 
 2056      00
 2057              	.LASF85:
 2058 04a5 63665F6F 		.ascii	"cf_off_prio\000"
 2058      66665F70 
 2058      72696F00 
 2059              	.LASF61:
 2060 04b1 725F7175 		.ascii	"r_queue\000"
 2060      65756500 
 2061              	.LASF53:
 2062 04b9 56697274 		.ascii	"VirtualTimer\000"
 2062      75616C54 
 2062      696D6572 
 2062      00
ARM GAS  /tmp/ccsjsM8c.s 			page 41


 2063              	.LASF76:
 2064 04c6 63686172 		.ascii	"char\000"
 2064      00
 2065              	.LASF101:
 2066 04cb 5F5F6D61 		.ascii	"__main_thread_stack_base__\000"
 2066      696E5F74 
 2066      68726561 
 2066      645F7374 
 2066      61636B5F 
 2067              	.LASF71:
 2068 04e6 6D5F6E65 		.ascii	"m_next\000"
 2068      787400
 2069              	.LASF23:
 2070 04ed 73797374 		.ascii	"systime_t\000"
 2070      696D655F 
 2070      7400
 2071              	.LASF43:
 2072 04f7 705F7265 		.ascii	"p_realprio\000"
 2072      616C7072 
 2072      696F00
 2073              	.LASF52:
 2074 0502 76746675 		.ascii	"vtfunc_t\000"
 2074      6E635F74 
 2074      00
 2075              	.LASF108:
 2076 050b 5F76745F 		.ascii	"_vt_init\000"
 2076      696E6974 
 2076      00
 2077              	.LASF37:
 2078 0514 705F7469 		.ascii	"p_time\000"
 2078      6D6500
 2079              	.LASF49:
 2080 051b 696E7463 		.ascii	"intctx\000"
 2080      747800
 2081              	.LASF39:
 2082 0522 705F6D73 		.ascii	"p_msgqueue\000"
 2082      67717565 
 2082      756500
 2083              	.LASF112:
 2084 052d 6462675F 		.ascii	"dbg_check_enable\000"
 2084      63686563 
 2084      6B5F656E 
 2084      61626C65 
 2084      00
 2085              	.LASF58:
 2086 053e 76745F70 		.ascii	"vt_par\000"
 2086      617200
 2087              	.LASF86:
 2088 0545 63665F6F 		.ascii	"cf_off_ctx\000"
 2088      66665F63 
 2088      747800
 2089              	.LASF35:
 2090 0550 705F7265 		.ascii	"p_refs\000"
 2090      667300
 2091              	.LASF67:
 2092 0557 52656164 		.ascii	"ReadyList\000"
 2092      794C6973 
ARM GAS  /tmp/ccsjsM8c.s 			page 42


 2092      7400
 2093              	.LASF103:
 2094 0561 726C6973 		.ascii	"rlist\000"
 2094      7400
 2095              	.LASF3:
 2096 0567 75696E74 		.ascii	"uint8_t\000"
 2096      385F7400 
 2097              	.LASF106:
 2098 056f 5F706F72 		.ascii	"_port_init\000"
 2098      745F696E 
 2098      697400
 2099              	.LASF116:
 2100 057a 6462675F 		.ascii	"dbg_check_lock_from_isr\000"
 2100      63686563 
 2100      6B5F6C6F 
 2100      636B5F66 
 2100      726F6D5F 
 2101              	.LASF74:
 2102 0592 77746F62 		.ascii	"wtobjp\000"
 2102      6A7000
 2103              	.LASF31:
 2104 0599 705F6E61 		.ascii	"p_name\000"
 2104      6D6500
 2105              	.LASF59:
 2106 05a0 76745F73 		.ascii	"vt_systime\000"
 2106      79737469 
 2106      6D6500
 2107              	.LASF81:
 2108 05ab 63685F76 		.ascii	"ch_version\000"
 2108      65727369 
 2108      6F6E00
 2109              	.LASF60:
 2110 05b6 56544C69 		.ascii	"VTList\000"
 2110      737400
 2111              	.LASF70:
 2112 05bd 6D5F6F77 		.ascii	"m_owner\000"
 2112      6E657200 
 2113              	.LASF28:
 2114 05c5 705F6374 		.ascii	"p_ctx\000"
 2114      7800
 2115              	.LASF38:
 2116 05cb 705F7761 		.ascii	"p_waiting\000"
 2116      6974696E 
 2116      6700
 2117              	.LASF120:
 2118 05d5 2F776F72 		.ascii	"/works/Dropbox/workspace/project.git/ChibiOS-RT_1/t"
 2118      6B732F44 
 2118      726F7062 
 2118      6F782F77 
 2118      6F726B73 
 2119 0608 65737468 		.ascii	"esthal/STM32F4xx/DMA_STORM\000"
 2119      616C2F53 
 2119      544D3332 
 2119      46347878 
 2119      2F444D41 
 2120              		.ident	"GCC: (GNU Tools for ARM Embedded Processors) 4.8.3 20131129 (release) [ARM/embedded-4_8-br
ARM GAS  /tmp/ccsjsM8c.s 			page 43


DEFINED SYMBOLS
                            *ABS*:00000000 chsys.c
     /tmp/ccsjsM8c.s:19     .text._idle_thread:00000000 $t
     /tmp/ccsjsM8c.s:25     .text._idle_thread:00000000 _idle_thread
     /tmp/ccsjsM8c.s:45     .text._idle_thread:0000000c $d
     /tmp/ccsjsM8c.s:51     .text.chSysInit:00000000 $t
     /tmp/ccsjsM8c.s:57     .text.chSysInit:00000000 chSysInit
     /tmp/ccsjsM8c.s:137    .text.chSysInit:0000005c $d
     /tmp/ccsjsM8c.s:147    .text.chSysTimerHandlerI:00000000 $t
     /tmp/ccsjsM8c.s:153    .text.chSysTimerHandlerI:00000000 chSysTimerHandlerI
     /tmp/ccsjsM8c.s:245    .text.chSysTimerHandlerI:00000064 $d
     /tmp/ccsjsM8c.s:268    .bss._idle_thread_wa:00000000 _idle_thread_wa
     /tmp/ccsjsM8c.s:253    .bss.mainthread.4824:00000000 $d
     /tmp/ccsjsM8c.s:257    .bss.mainthread.4824:00000000 mainthread.4824
     /tmp/ccsjsM8c.s:260    .rodata.str1.4:00000000 $d
     /tmp/ccsjsM8c.s:264    .bss._idle_thread_wa:00000000 $d
                     .debug_frame:00000010 $d
     /tmp/ccsjsM8c.s:50     .text._idle_thread:00000014 $t
     /tmp/ccsjsM8c.s:146    .text.chSysInit:00000074 $t
     /tmp/ccsjsM8c.s:252    .text.chSysTimerHandlerI:0000006c $t

UNDEFINED SYMBOLS
rlist
_port_init
_scheduler_init
_vt_init
_core_init
_heap_init
_trace_init
_thread_init
dbg_check_enable
chThdCreateStatic
__main_thread_stack_base__
ch_debug
chDbgCheckClassI
dbg_check_unlock_from_isr
dbg_check_lock_from_isr
vtlist
