ARM GAS  /tmp/ccsjsM8c.s 			page 1


   1              		.syntax unified
   2              		.cpu cortex-m4
   3              		.fpu softvfp
   4              		.eabi_attribute 20, 1
   5              		.eabi_attribute 21, 1
   6              		.eabi_attribute 23, 3
   7              		.eabi_attribute 24, 1
   8              		.eabi_attribute 25, 1
   9              		.eabi_attribute 26, 1
  10              		.eabi_attribute 30, 2
  11              		.eabi_attribute 34, 1
  12              		.eabi_attribute 18, 4
  13              		.thumb
  14              		.file	"chsys.c"
  15              		.text
  16              	.Ltext0:
  17              		.cfi_sections	.debug_frame
  18              		.section	.text._idle_thread,"ax",%progbits
  19              		.align	2
  20              		.p2align 4,,15
  21              		.global	_idle_thread
  22              		.thumb
  23              		.thumb_func
  24              		.type	_idle_thread, %function
  25              	_idle_thread:
  26              	.LFB7:
  27              		.file 1 "../../../os/kernel/src/chsys.c"
  28              		.loc 1 54 0
  29              		.cfi_startproc
  30              		@ Volatile: function does not return.
  31              		@ args = 0, pretend = 0, frame = 0
  32              		@ frame_needed = 0, uses_anonymous_args = 0
  33              		@ link register save eliminated.
  34              	.LVL0:
  35              		.loc 1 57 0
  36 0000 024B     		ldr	r3, .L4
  37 0002 034A     		ldr	r2, .L4+4
  38 0004 9B69     		ldr	r3, [r3, #24]
  39 0006 9A61     		str	r2, [r3, #24]
  40              	.L2:
  41 0008 FEE7     		b	.L2
  42              	.L5:
  43 000a 00BF     		.align	2
  44              	.L4:
  45 000c 00000000 		.word	rlist
  46 0010 00000000 		.word	.LC0
  47              		.cfi_endproc
  48              	.LFE7:
  49              		.size	_idle_thread, .-_idle_thread
  50 0014 AFF30080 		.section	.text.chSysInit,"ax",%progbits
  50      AFF30080 
  50      AFF30080 
  51              		.align	2
  52              		.p2align 4,,15
  53              		.global	chSysInit
  54              		.thumb
  55              		.thumb_func
ARM GAS  /tmp/ccsjsM8c.s 			page 2


  56              		.type	chSysInit, %function
  57              	chSysInit:
  58              	.LFB8:
  59              		.loc 1 77 0
  60              		.cfi_startproc
  61              		@ args = 0, pretend = 0, frame = 0
  62              		@ frame_needed = 0, uses_anonymous_args = 0
  63 0000 00B5     		push	{lr}
  64              		.cfi_def_cfa_offset 4
  65              		.cfi_offset 14, -4
  66 0002 83B0     		sub	sp, sp, #12
  67              		.cfi_def_cfa_offset 16
  68              		.loc 1 83 0
  69 0004 FFF7FEFF 		bl	_port_init
  70              	.LVL1:
  71              		.loc 1 84 0
  72 0008 FFF7FEFF 		bl	_scheduler_init
  73              	.LVL2:
  74              		.loc 1 85 0
  75 000c FFF7FEFF 		bl	_vt_init
  76              	.LVL3:
  77              		.loc 1 87 0
  78 0010 FFF7FEFF 		bl	_core_init
  79              	.LVL4:
  80              		.loc 1 90 0
  81 0014 FFF7FEFF 		bl	_heap_init
  82              	.LVL5:
  83              		.loc 1 93 0
  84 0018 FFF7FEFF 		bl	_trace_init
  85              	.LVL6:
  86              		.loc 1 97 0
  87 001c 4021     		movs	r1, #64
  88 001e 0F48     		ldr	r0, .L7
  89 0020 FFF7FEFF 		bl	_thread_init
  90              	.LVL7:
  91              		.loc 1 98 0
  92 0024 0121     		movs	r1, #1
  93              		.loc 1 102 0
  94 0026 0E4A     		ldr	r2, .L7+4
  95              		.loc 1 97 0
  96 0028 0E4B     		ldr	r3, .L7+8
  97              		.loc 1 98 0
  98 002a 80F82010 		strb	r1, [r0, #32]
  99              		.loc 1 102 0
 100 002e C261     		str	r2, [r0, #28]
 101              		.loc 1 97 0
 102 0030 9861     		str	r0, [r3, #24]
 103              		.loc 1 104 0
 104 0032 FFF7FEFF 		bl	dbg_check_enable
 105              	.LVL8:
 106              	.LBB2:
 107 0036 0023     		movs	r3, #0
 108              	@ 104 "../../../os/kernel/src/chsys.c" 1
 109 0038 83F31188 		msr     BASEPRI, r3                    
 110 003c 62B6     		cpsie   i
 111              	@ 0 "" 2
 112              		.thumb
ARM GAS  /tmp/ccsjsM8c.s 			page 3


 113              	.LBE2:
 114              		.loc 1 108 0
 115 003e 094B     		ldr	r3, .L7+8
 116 0040 094A     		ldr	r2, .L7+12
 117 0042 9B69     		ldr	r3, [r3, #24]
 118              		.loc 1 114 0
 119 0044 0948     		ldr	r0, .L7+16
 120              		.loc 1 108 0
 121 0046 9A61     		str	r2, [r3, #24]
 122              		.loc 1 114 0
 123 0048 0023     		movs	r3, #0
 124 004a 0093     		str	r3, [sp]
 125 004c C021     		movs	r1, #192
 126 004e 0122     		movs	r2, #1
 127 0050 074B     		ldr	r3, .L7+20
 128 0052 FFF7FEFF 		bl	chThdCreateStatic
 129              	.LVL9:
 130              		.loc 1 117 0
 131 0056 03B0     		add	sp, sp, #12
 132              		@ sp needed
 133 0058 5DF804FB 		ldr	pc, [sp], #4
 134              	.L8:
 135              		.align	2
 136              	.L7:
 137 005c 00000000 		.word	.LANCHOR0
 138 0060 00000000 		.word	__main_thread_stack_base__
 139 0064 00000000 		.word	rlist
 140 0068 00000000 		.word	ch_debug
 141 006c 00000000 		.word	.LANCHOR1
 142 0070 00000000 		.word	_idle_thread
 143              		.cfi_endproc
 144              	.LFE8:
 145              		.size	chSysInit, .-chSysInit
 146 0074 AFF30080 		.section	.text.chSysTimerHandlerI,"ax",%progbits
 146      AFF30080 
 146      AFF30080 
 147              		.align	2
 148              		.p2align 4,,15
 149              		.global	chSysTimerHandlerI
 150              		.thumb
 151              		.thumb_func
 152              		.type	chSysTimerHandlerI, %function
 153              	chSysTimerHandlerI:
 154              	.LFB9:
 155              		.loc 1 130 0
 156              		.cfi_startproc
 157              		@ args = 0, pretend = 0, frame = 0
 158              		@ frame_needed = 0, uses_anonymous_args = 0
 159 0000 F8B5     		push	{r3, r4, r5, r6, r7, lr}
 160              		.cfi_def_cfa_offset 24
 161              		.cfi_offset 3, -24
 162              		.cfi_offset 4, -20
 163              		.cfi_offset 5, -16
 164              		.cfi_offset 6, -12
 165              		.cfi_offset 7, -8
 166              		.cfi_offset 14, -4
 167              		.loc 1 132 0
ARM GAS  /tmp/ccsjsM8c.s 			page 4


 168 0002 FFF7FEFF 		bl	chDbgCheckClassI
 169              	.LVL10:
 170              		.loc 1 136 0
 171 0006 174B     		ldr	r3, .L17
 172 0008 9A69     		ldr	r2, [r3, #24]
 173 000a 92F82330 		ldrb	r3, [r2, #35]	@ zero_extendqisi2
 174 000e 13B1     		cbz	r3, .L10
 175              		.loc 1 138 0
 176 0010 013B     		subs	r3, r3, #1
 177 0012 82F82330 		strb	r3, [r2, #35]
 178              	.L10:
 179              		.loc 1 141 0
 180 0016 516A     		ldr	r1, [r2, #36]
 181              		.loc 1 143 0
 182 0018 134B     		ldr	r3, .L17+4
 183              		.loc 1 141 0
 184 001a 0131     		adds	r1, r1, #1
 185 001c 5162     		str	r1, [r2, #36]
 186              		.loc 1 143 0
 187 001e DA68     		ldr	r2, [r3, #12]
 188 0020 1C68     		ldr	r4, [r3]
 189 0022 0132     		adds	r2, r2, #1
 190 0024 9C42     		cmp	r4, r3
 191 0026 DA60     		str	r2, [r3, #12]
 192 0028 1AD0     		beq	.L9
 193              	.LBB3:
 194              		.loc 1 143 0 is_stmt 0 discriminator 1
 195 002a A768     		ldr	r7, [r4, #8]
 196 002c 013F     		subs	r7, r7, #1
 197 002e A760     		str	r7, [r4, #8]
 198              	.LVL11:
 199 0030 B7B9     		cbnz	r7, .L9
 200              		.loc 1 143 0
 201 0032 1E46     		mov	r6, r3
 202              	.L13:
 203              	.LBB4:
 204              		.loc 1 143 0 discriminator 2
 205 0034 2268     		ldr	r2, [r4]
 206 0036 E568     		ldr	r5, [r4, #12]
 207              	.LVL12:
 208 0038 E760     		str	r7, [r4, #12]
 209 003a 5360     		str	r3, [r2, #4]
 210 003c 1A60     		str	r2, [r3]
 211 003e FFF7FEFF 		bl	dbg_check_unlock_from_isr
 212              	.LVL13:
 213              	.LBB5:
 214 0042 0023     		movs	r3, #0
 215              	@ 143 "../../../os/kernel/src/chsys.c" 1
 216 0044 83F31188 		msr     BASEPRI, r3
 217              	@ 0 "" 2
 218              		.thumb
 219              	.LBE5:
 220 0048 2069     		ldr	r0, [r4, #16]
 221 004a A847     		blx	r5
 222              	.LVL14:
 223              	.LBB6:
 224 004c 2023     		movs	r3, #32
ARM GAS  /tmp/ccsjsM8c.s 			page 5


 225              	@ 143 "../../../os/kernel/src/chsys.c" 1
 226 004e 83F31188 		msr     BASEPRI, r3
 227              	@ 0 "" 2
 228              		.thumb
 229              	.LBE6:
 230 0052 FFF7FEFF 		bl	dbg_check_lock_from_isr
 231              	.LVL15:
 232              	.LBE4:
 233 0056 3468     		ldr	r4, [r6]
 234              	.LVL16:
 235 0058 034B     		ldr	r3, .L17+4
 236 005a A268     		ldr	r2, [r4, #8]
 237 005c 002A     		cmp	r2, #0
 238 005e E9D0     		beq	.L13
 239              	.LVL17:
 240              	.L9:
 241 0060 F8BD     		pop	{r3, r4, r5, r6, r7, pc}
 242              	.L18:
 243 0062 00BF     		.align	2
 244              	.L17:
 245 0064 00000000 		.word	rlist
 246 0068 00000000 		.word	vtlist
 247              	.LBE3:
 248              		.cfi_endproc
 249              	.LFE9:
 250              		.size	chSysTimerHandlerI, .-chSysTimerHandlerI
 251              		.global	_idle_thread_wa
 252 006c AFF30080 		.section	.bss.mainthread.4824,"aw",%nobits
 253              		.align	2
 254              		.set	.LANCHOR0,. + 0
 255              		.type	mainthread.4824, %object
 256              		.size	mainthread.4824, 76
 257              	mainthread.4824:
 258 0000 00000000 		.space	76
 258      00000000 
 258      00000000 
 258      00000000 
 258      00000000 
 259              		.section	.rodata.str1.4,"aMS",%progbits,1
 260              		.align	2
 261              	.LC0:
 262 0000 69646C65 		.ascii	"idle\000"
 262      00
 263 0005 000000   		.section	.bss._idle_thread_wa,"aw",%nobits
 264              		.align	3
 265              		.set	.LANCHOR1,. + 0
 266              		.type	_idle_thread_wa, %object
 267              		.size	_idle_thread_wa, 192
 268              	_idle_thread_wa:
 269 0000 00000000 		.space	192
 269      00000000 
 269      00000000 
 269      00000000 
 269      00000000 
 270              		.text
 271              	.Letext0:
 272              		.file 2 "/usr/local/csl/gcc-arm-none-eabi-4_8-2013q4/lib/gcc/arm-none-eabi/4.8.3/include/stddef.h"
ARM GAS  /tmp/ccsjsM8c.s 			page 6


 273              		.file 3 "/usr/local/csl/gcc-arm-none-eabi-4_8-2013q4/arm-none-eabi/include/stdint.h"
 274              		.file 4 "../../../os/ports/GCC/ARMCMx/chtypes.h"
 275              		.file 5 "../../../os/kernel/include/chlists.h"
 276              		.file 6 "../../../os/kernel/include/chthreads.h"
 277              		.file 7 "../../../os/ports/GCC/ARMCMx/chcore_v7m.h"
 278              		.file 8 "../../../os/kernel/include/chvt.h"
 279              		.file 9 "../../../os/kernel/include/chschd.h"
 280              		.file 10 "../../../os/kernel/include/chmtx.h"
 281              		.file 11 "../../../os/kernel/include/chregistry.h"
 282              		.file 12 "../../../os/kernel/include/chmemcore.h"
 283              		.file 13 "../../../os/kernel/include/chheap.h"
 284              		.file 14 "../../../os/kernel/include/chdebug.h"